(lp0
(lp1
(lp2
(lp3
F38.4
aa(lp4
F56.3
aF77.3
aF70.4
aF56.3
aF63.4
aF56.3
aF63.4
aF63.3
aa(lp5
F56.4
aF56.2
aF56.1
aF63.4
aF70.4
aF70.2
aF77.2
aF56.4
aa(lp6
F77.2
aF56.1
aF56.1
aF63.4
aF63.2
aF56.2
aF63.4
aF70.4
aa(lp7
F56.1
aF70.4
aF77.4
aF56.1
aF56.1
aF56.1
aF70.3
aF63.3
aa(lp8
F56.1
aF77.1
aF77.1
aF77.4
aF63.2
aF77.3
aF77.3
aa(lp9
F63.2
aF56.4
aF56.3
aF63.1
aF56.2
aF77.2
aF56.4
aF77.1
aa(lp10
F63.3
aF70.3
aF56.1
aF77.1
aF56.1
aF56.3
aF56.1
aF70.3
aa(lp11
F63.2
aF70.1
aF70.1
aF63.1
aF56.2
aF70.1
aF56.2
aF56.2
aa(lp12
F63.2
aF63.1
aF56.1
aF56.4
aF70.2
aF77.4
aF63.2
aF56.2
aa(lp13
F56.2
aF77.1
aF56.4
aF56.4
aF56.1
aF63.2
aF63.1
aF77.4
aa(lp14
F38.2
aa(lp15
F38.1
aa(lp16
F38.2
aa(lp17
F38.2
aa(lp18
F38.2
aa(lp19
F38.4
aa(lp20
F38.3
aa(lp21
F38.2
aa(lp22
F38.1
aa(lp23
F38.3
aa(lp24
F38.2
aa(lp25
F38.4
aa(lp26
F38.4
aa(lp27
F38.2
aa(lp28
F38.4
aa(lp29
F38.2
aa(lp30
F38.4
aa(lp31
F38.4
aa(lp32
F38.3
aa(lp33
F38.2
aa(lp34
F38.1
aa(lp35
F38.4
aa(lp36
F38.4
aaa(lp37
(lp38
F38.4
aa(lp39
F70.3
aF56.1
aF63.4
aF63.4
aF63.4
aF63.4
aF63.4
aF63.1
aa(lp40
F56.4
aF56.4
aF70.2
aF56.3
aF56.2
aF77.3
aF77.3
aF56.3
aa(lp41
F70.2
aF56.3
aF70.3
aF56.4
aF63.4
aF63.1
aF63.3
aF63.3
aa(lp42
F70.3
aF56.2
aF70.4
aF56.1
aF63.2
aF56.3
aF56.2
aF77.3
aa(lp43
F56.1
aF56.2
aF56.2
aF56.4
aF77.1
aF56.2
aF77.1
aF70.3
aa(lp44
F56.1
aF63.4
aF77.2
aF56.1
aF63.4
aF77.2
aF56.1
aF56.1
aa(lp45
F77.1
aF56.4
aF56.4
aF56.4
aF56.4
aF56.4
aF77.2
aF70.3
aa(lp46
F56.2
aF70.3
aF56.1
aF56.1
aF56.1
aF77.1
aF63.3
aF70.3
aa(lp47
F70.1
aF70.1
aF70.3
aF77.1
aF70.1
aF77.3
aF70.1
aa(lp48
F63.1
aF70.1
aF63.4
aF63.1
aF70.3
aF63.2
aF56.1
aF56.1
aa(lp49
F38.3
aa(lp50
F38.2
aa(lp51
F38.4
aa(lp52
F38.2
aa(lp53
F38.2
aa(lp54
F38.2
aa(lp55
F38.4
aa(lp56
F38.3
aa(lp57
F38.3
aa(lp58
F38.3
aa(lp59
F38.3
aa(lp60
F38.4
aa(lp61
F38.4
aa(lp62
F38.4
aa(lp63
F38.4
aa(lp64
F38.4
aa(lp65
F38.3
aa(lp66
F38.3
aa(lp67
F38.4
aa(lp68
F38.4
aa(lp69
F38.2
aa(lp70
F38.1
aa(lp71
F38.1
aaa(lp72
(lp73
F38.3
aa(lp74
F63.4
aF70.4
aF77.4
aF77.4
aF63.4
aF77.3
aF77.3
aa(lp75
F56.1
aF63.1
aF63.3
aF77.3
aF63.3
aF63.1
aF56.2
aF63.1
aa(lp76
F63.2
aF56.1
aF56.1
aF77.2
aF56.1
aF56.3
aF77.2
aF63.1
aa(lp77
F56.3
aF56.3
aF77.2
aF56.3
aF56.4
aF63.1
aF77.2
aF63.4
aa(lp78
F63.2
aF63.4
aF70.2
aF56.3
aF56.4
aF77.1
aF63.4
aF56.1
aa(lp79
F77.3
aF77.1
aF77.2
aF77.1
aF77.3
aF56.1
aF63.4
aa(lp80
F70.1
aF70.1
aF56.4
aF70.1
aF63.4
aF56.3
aF63.2
aF56.4
aa(lp81
F56.3
aF56.3
aF56.1
aF77.4
aF63.1
aF56.3
aF63.4
aF77.1
aa(lp82
F56.4
aF70.2
aF70.4
aF77.1
aF56.1
aF56.1
aF63.2
aF56.1
aa(lp83
F56.4
aF63.1
aF70.2
aF63.1
aF56.3
aF63.4
aF70.1
aF63.4
aa(lp84
F38.2
aa(lp85
F38.3
aa(lp86
F38.4
aa(lp87
F38.4
aa(lp88
F38.2
aa(lp89
F38.3
aa(lp90
F38.4
aa(lp91
F38.4
aa(lp92
F38.1
aa(lp93
F38.1
aa(lp94
F38.2
aa(lp95
F38.2
aa(lp96
F38.1
aa(lp97
F38.3
aa(lp98
F38.4
aa(lp99
F38.4
aa(lp100
F38.4
aa(lp101
F38.1
aa(lp102
F38.4
aa(lp103
F38.1
aa(lp104
F38.3
aa(lp105
F38.1
aa(lp106
F38.4
aaa(lp107
(lp108
F38.1
aa(lp109
F56.1
aF63.3
aF63.3
aF63.3
aF63.3
aF77.4
aF63.3
aF56.3
aa(lp110
F70.1
aF77.3
aF70.1
aF70.2
aF63.2
aF77.3
aF77.2
aa(lp111
F56.2
aF56.3
aF63.2
aF77.2
aF56.1
aF63.3
aF77.4
aF56.3
aa(lp112
F56.3
aF77.1
aF56.3
aF63.3
aF63.3
aF56.1
aF63.4
aF70.2
aa(lp113
F56.2
aF56.1
aF56.1
aF56.2
aF77.4
aF63.2
aF77.1
aF63.2
aa(lp114
F63.2
aF56.1
aF70.4
aF56.1
aF70.4
aF56.3
aF77.3
aF56.2
aa(lp115
F56.4
aF77.4
aF63.4
aF63.3
aF63.2
aF56.1
aF63.4
aF63.2
aa(lp116
F63.1
aF56.1
aF63.4
aF63.2
aF63.4
aF63.1
aF63.4
aF70.2
aa(lp117
F77.3
aF56.3
aF70.3
aF56.3
aF56.3
aF70.3
aF63.1
aF56.1
aa(lp118
F70.1
aF56.3
aF56.4
aF70.2
aF56.2
aF63.2
aF70.2
aF63.4
aa(lp119
F38.1
aa(lp120
F38.4
aa(lp121
F38.3
aa(lp122
F38.1
aa(lp123
F38.2
aa(lp124
F38.4
aa(lp125
F38.4
aa(lp126
F38.4
aa(lp127
F38.3
aa(lp128
F38.4
aa(lp129
F38.3
aa(lp130
F38.1
aa(lp131
F38.1
aa(lp132
F38.2
aa(lp133
F38.2
aa(lp134
F38.2
aa(lp135
F38.3
aa(lp136
F38.2
aa(lp137
F38.3
aa(lp138
F38.2
aa(lp139
F38.4
aa(lp140
F38.1
aa(lp141
F38.2
aaa(lp142
(lp143
F38.1
aa(lp144
F70.2
aF63.2
aF63.1
aF70.3
aF56.2
aF56.4
aF63.3
aF63.4
aa(lp145
F63.3
aF77.4
aF77.4
aF56.2
aF56.2
aF63.4
aF56.2
aF56.3
aa(lp146
F70.1
aF56.4
aF63.4
aF77.1
aF56.3
aF56.2
aF70.1
aF56.4
aa(lp147
F77.1
aF56.2
aF77.3
aF56.2
aF63.1
aF63.4
aF56.4
aF56.2
aa(lp148
F56.2
aF56.1
aF56.3
aF63.3
aF77.1
aF63.4
aF56.3
aF77.1
aa(lp149
F63.4
aF56.1
aF56.2
aF63.4
aF77.3
aF56.2
aF70.3
aF63.4
aa(lp150
F63.2
aF63.3
aF63.4
aF70.2
aF56.2
aF63.2
aF63.3
aF63.4
aa(lp151
F56.1
aF63.3
aF63.2
aF63.2
aF63.2
aF70.4
aF63.3
aF63.2
aa(lp152
F56.4
aF63.4
aF77.3
aF56.1
aF56.4
aF70.2
aF56.4
aF70.2
aa(lp153
F77.1
aF77.1
aF77.3
aF70.4
aF70.2
aF63.1
aF70.2
aa(lp154
F38.4
aa(lp155
F38.3
aa(lp156
F38.1
aa(lp157
F38.2
aa(lp158
F38.3
aa(lp159
F38.2
aa(lp160
F38.4
aa(lp161
F38.3
aa(lp162
F38.3
aa(lp163
F38.4
aa(lp164
F38.3
aa(lp165
F38.2
aa(lp166
F38.2
aa(lp167
F38.1
aa(lp168
F38.4
aa(lp169
F38.3
aa(lp170
F38.1
aa(lp171
F38.4
aa(lp172
F38.3
aa(lp173
F38.4
aa(lp174
F38.3
aa(lp175
F38.4
aa(lp176
F38.4
aaa(lp177
(lp178
F38.2
aa(lp179
F77.3
aF56.3
aF63.3
aF63.1
aF63.4
aF56.3
aF63.4
aF63.3
aa(lp180
F63.2
aF63.2
aF63.3
aF70.3
aF56.2
aF63.2
aF63.2
aF63.2
aa(lp181
F63.4
aF77.2
aF56.1
aF56.1
aF63.1
aF56.1
aF77.3
aF56.3
aa(lp182
F63.4
aF63.1
aF63.1
aF63.2
aF70.2
aF63.3
aF56.1
aF63.3
aa(lp183
F56.3
aF77.2
aF70.3
aF56.3
aF70.4
aF63.1
aF56.2
aF56.4
aa(lp184
F70.3
aF77.3
aF77.3
aF63.2
aF77.2
aF63.3
aF77.2
aa(lp185
F56.1
aF77.4
aF56.2
aF56.2
aF56.1
aF70.4
aF70.1
aF63.1
aa(lp186
F63.1
aF77.4
aF56.4
aF56.1
aF63.2
aF63.4
aF63.2
aF63.1
aa(lp187
F56.1
aF56.1
aF56.4
aF77.1
aF77.1
aF63.4
aF63.4
aF56.3
aa(lp188
F77.4
aF63.4
aF77.1
aF70.1
aF77.2
aF70.1
aF70.4
aa(lp189
F38.4
aa(lp190
F38.2
aa(lp191
F38.1
aa(lp192
F38.1
aa(lp193
F38.1
aa(lp194
F38.1
aa(lp195
F38.1
aa(lp196
F38.4
aa(lp197
F38.1
aa(lp198
F38.4
aa(lp199
F38.3
aa(lp200
F38.3
aa(lp201
F38.3
aa(lp202
F38.4
aa(lp203
F38.1
aa(lp204
F38.3
aa(lp205
F38.1
aa(lp206
F38.1
aa(lp207
F38.4
aa(lp208
F38.2
aa(lp209
F38.1
aa(lp210
F38.3
aa(lp211
F38.1
aaa(lp212
(lp213
F38.2
aa(lp214
F63.4
aF63.1
aF70.1
aF63.1
aF63.1
aF63.1
aF56.3
aF63.4
aa(lp215
F77.2
aF70.1
aF56.2
aF56.3
aF56.3
aF56.3
aF56.2
aF77.3
aa(lp216
F56.1
aF70.1
aF63.1
aF63.3
aF56.1
aF63.3
aF63.1
aF70.1
aa(lp217
F70.2
aF56.1
aF56.1
aF77.1
aF63.3
aF56.4
aF63.2
aF63.2
aa(lp218
F63.4
aF56.4
aF56.4
aF70.3
aF70.4
aF63.1
aF56.1
aF70.4
aa(lp219
F70.3
aF77.4
aF56.3
aF70.1
aF56.4
aF63.4
aF56.2
aF56.3
aa(lp220
F70.1
aF56.4
aF63.2
aF63.2
aF56.4
aF56.3
aF63.2
aF77.1
aa(lp221
F56.4
aF63.1
aF70.3
aF77.2
aF56.1
aF56.4
aF63.1
aF63.1
aa(lp222
F70.4
aF63.4
aF56.3
aF56.4
aF77.1
aF70.4
aF56.3
aF56.4
aa(lp223
F63.2
aF56.4
aF63.4
aF63.2
aF63.2
aF63.4
aF63.2
aF70.1
aa(lp224
F38.1
aa(lp225
F38.2
aa(lp226
F38.3
aa(lp227
F38.3
aa(lp228
F38.3
aa(lp229
F38.3
aa(lp230
F38.1
aa(lp231
F38.3
aa(lp232
F38.4
aa(lp233
F38.3
aa(lp234
F38.4
aa(lp235
F38.3
aa(lp236
F38.3
aa(lp237
F38.1
aa(lp238
F38.1
aa(lp239
F38.1
aa(lp240
F38.1
aa(lp241
F38.3
aa(lp242
F38.3
aa(lp243
F38.3
aa(lp244
F38.3
aa(lp245
F38.4
aa(lp246
F38.4
aaa(lp247
(lp248
F38.1
aa(lp249
F63.3
aF63.4
aF70.3
aF63.4
aF63.3
aF63.3
aF63.4
aF56.2
aa(lp250
F56.2
aF56.1
aF70.2
aF63.3
aF63.3
aF63.4
aF63.4
aF70.4
aa(lp251
F56.1
aF77.2
aF70.4
aF77.2
aF77.2
aF70.2
aF77.2
aa(lp252
F63.4
aF56.2
aF77.3
aF63.4
aF56.2
aF63.4
aF63.4
aF63.3
aa(lp253
F70.2
aF56.2
aF63.3
aF56.2
aF77.2
aF56.2
aF70.2
aF56.3
aa(lp254
F56.4
aF77.3
aF70.4
aF56.4
aF56.4
aF56.4
aF56.4
aF77.4
aa(lp255
F70.4
aF70.2
aF56.2
aF63.3
aF56.1
aF56.2
aF70.1
aF63.3
aa(lp256
F77.1
aF56.3
aF56.1
aF56.3
aF63.4
aF77.4
aF56.3
aF63.1
aa(lp257
F56.3
aF56.3
aF56.3
aF77.2
aF56.1
aF56.4
aF77.1
aF70.4
aa(lp258
F63.4
aF63.3
aF56.1
aF70.1
aF77.2
aF63.2
aF56.4
aF56.1
aa(lp259
F38.3
aa(lp260
F38.4
aa(lp261
F38.4
aa(lp262
F38.3
aa(lp263
F38.1
aa(lp264
F38.2
aa(lp265
F38.2
aa(lp266
F38.4
aa(lp267
F38.1
aa(lp268
F38.3
aa(lp269
F38.2
aa(lp270
F38.2
aa(lp271
F38.1
aa(lp272
F38.3
aa(lp273
F38.4
aa(lp274
F38.4
aa(lp275
F38.2
aa(lp276
F38.3
aa(lp277
F38.2
aa(lp278
F38.4
aa(lp279
F38.3
aa(lp280
F38.1
aa(lp281
F38.4
aaa(lp282
(lp283
F38.4
aa(lp284
F56.1
aF63.1
aF63.3
aF63.3
aF56.4
aF77.2
aF63.1
aF63.3
aa(lp285
F56.1
aF56.4
aF56.1
aF70.2
aF70.3
aF56.1
aF63.1
aF77.1
aa(lp286
F63.1
aF63.1
aF63.1
aF63.1
aF63.1
aF63.4
aF56.2
aF70.3
aa(lp287
F56.4
aF70.3
aF70.1
aF70.3
aF63.4
aF56.2
aF56.2
aF63.4
aa(lp288
F77.4
aF56.4
aF56.2
aF77.4
aF63.2
aF56.2
aF63.1
aF56.3
aa(lp289
F77.3
aF56.1
aF56.3
aF70.1
aF56.3
aF56.2
aF77.3
aF56.4
aa(lp290
F70.4
aF70.3
aF63.2
aF56.1
aF56.4
aF63.2
aF56.4
aF70.2
aa(lp291
F63.1
aF56.4
aF56.2
aF77.1
aF56.4
aF77.1
aF56.2
aF63.1
aa(lp292
F77.1
aF70.3
aF63.3
aF56.3
aF56.3
aF70.1
aF56.4
aF56.3
aa(lp293
F70.2
aF63.4
aF70.2
aF56.1
aF70.4
aF63.2
aF56.1
aF56.1
aa(lp294
F38.3
aa(lp295
F38.1
aa(lp296
F38.4
aa(lp297
F38.1
aa(lp298
F38.2
aa(lp299
F38.2
aa(lp300
F38.2
aa(lp301
F38.3
aa(lp302
F38.4
aa(lp303
F38.4
aa(lp304
F38.4
aa(lp305
F38.3
aa(lp306
F38.3
aa(lp307
F38.2
aa(lp308
F38.3
aa(lp309
F38.1
aa(lp310
F38.1
aa(lp311
F38.3
aa(lp312
F38.1
aa(lp313
F38.4
aa(lp314
F38.3
aa(lp315
F38.4
aa(lp316
F38.3
aaa(lp317
(lp318
F38.2
aa(lp319
F70.4
aF56.1
aF63.2
aF63.2
aF63.2
aF77.4
aF56.3
aF56.1
aa(lp320
F56.2
aF70.3
aF63.3
aF56.2
aF56.4
aF70.4
aF77.4
aF56.4
aa(lp321
F63.2
aF63.4
aF56.3
aF77.4
aF56.4
aF63.3
aF70.3
aF56.2
aa(lp322
F63.1
aF63.3
aF77.3
aF56.1
aF56.2
aF63.3
aF63.4
aF63.4
aa(lp323
F63.2
aF56.1
aF77.2
aF56.4
aF63.2
aF56.4
aF56.2
aF77.1
aa(lp324
F56.4
aF77.2
aF56.4
aF70.1
aF56.3
aF56.1
aF77.3
aF56.1
aa(lp325
F56.1
aF77.1
aF70.4
aF77.2
aF77.2
aF77.4
aF70.1
aa(lp326
F63.1
aF63.1
aF63.2
aF63.1
aF63.1
aF63.3
aF70.2
aF56.1
aa(lp327
F56.1
aF56.1
aF70.1
aF70.1
aF63.4
aF77.4
aF56.4
aF56.4
aa(lp328
F63.4
aF77.3
aF63.4
aF63.1
aF56.1
aF56.3
aF63.3
aF63.4
aa(lp329
F38.2
aa(lp330
F38.1
aa(lp331
F38.4
aa(lp332
F38.3
aa(lp333
F38.1
aa(lp334
F38.4
aa(lp335
F38.1
aa(lp336
F38.3
aa(lp337
F38.2
aa(lp338
F38.2
aa(lp339
F38.2
aa(lp340
F38.4
aa(lp341
F38.4
aa(lp342
F38.2
aa(lp343
F38.2
aa(lp344
F38.4
aa(lp345
F38.4
aa(lp346
F38.4
aa(lp347
F38.2
aa(lp348
F38.2
aa(lp349
F38.2
aa(lp350
F38.4
aa(lp351
F38.1
aaaa(lp352
(lp353
(I1
I23
tp354
a(I5
I56
tp355
a(I12
I69
tp356
a(I16
I104
tp357
a(I10
I132
tp358
a(I13
I140
tp359
a(I10
I160
tp360
a(I4
I181
tp361
a(I13
I189
tp362
a(I14
I216
tp363
a(I16
I251
tp364
a(I0
I270
tp365
a(I3
I23
tp366
a(I2
I270
tp367
a(I5
I23
tp368
a(I4
I270
tp369
a(I7
I30
tp370
a(I6
I277
tp371
a(I9
I30
tp372
a(I8
I277
tp373
a(I11
I30
tp374
a(I10
I277
tp375
a(I13
I23
tp376
a(I12
I270
tp377
a(I15
I23
tp378
a(I14
I270
tp379
a(I17
I23
tp380
a(I16
I270
tp381
a(I19
I30
tp382
a(I18
I277
tp383
a(I21
I30
tp384
a(I20
I277
tp385
a(I23
I30
tp386
a(I22
I277
tp387
aa(lp388
g354
a(I20
I62
tp389
a(I0
I69
tp390
a(I19
I98
tp391
a(I21
I119
tp392
a(I17
I126
tp393
a(I20
I160
tp394
a(I12
I174
tp395
a(I10
I202
tp396
a(I12
I230
tp397
a(I4
I244
tp398
ag365
ag366
ag367
ag368
ag369
ag370
ag371
ag372
ag373
ag374
ag375
ag376
ag377
ag378
ag379
ag380
ag381
ag382
ag383
ag384
ag385
ag386
ag387
aa(lp399
g354
a(I8
I55
tp400
a(I2
I69
tp401
a(I16
I104
tp402
a(I6
I118
tp403
a(I20
I146
tp404
a(I14
I153
tp405
a(I0
I188
tp406
a(I4
I209
tp407
a(I9
I217
tp408
a(I21
I245
tp409
ag365
ag366
ag367
ag368
ag369
ag370
ag371
ag372
ag373
ag374
ag375
ag376
ag377
ag378
ag379
ag380
ag381
ag382
ag383
ag384
ag385
ag386
ag387
aa(lp410
g354
a(I14
I62
tp411
a(I18
I76
tp412
a(I9
I105
tp413
a(I10
I132
tp414
a(I1
I133
tp415
a(I20
I174
tp416
a(I6
I181
tp417
a(I10
I216
tp418
a(I15
I210
tp419
a(I5
I238
tp420
ag365
ag366
ag367
ag368
ag369
ag370
ag371
ag372
ag373
ag374
ag375
ag376
ag377
ag378
ag379
ag380
ag381
ag382
ag383
ag384
ag385
ag386
ag387
aa(lp421
g354
a(I14
I48
tp422
a(I15
I70
tp423
a(I11
I91
tp424
a(I22
I125
tp425
a(I20
I139
tp426
a(I0
I167
tp427
a(I1
I175
tp428
a(I2
I202
tp429
a(I18
I223
tp430
a(I19
I238
tp431
ag365
ag366
ag367
ag368
ag369
ag370
ag371
ag372
ag373
ag374
ag375
ag376
ag377
ag378
ag379
ag380
ag381
ag382
ag383
ag384
ag385
ag386
ag387
aa(lp432
g354
a(I7
I63
tp433
a(I7
I70
tp434
a(I7
I105
tp435
a(I9
I119
tp436
a(I22
I153
tp437
a(I0
I160
tp438
a(I9
I175
tp439
a(I7
I210
tp440
a(I10
I237
tp441
a(I6
I258
tp442
ag365
ag366
ag367
ag368
ag369
ag370
ag371
ag372
ag373
ag374
ag375
ag376
ag377
ag378
ag379
ag380
ag381
ag382
ag383
ag384
ag385
ag386
ag387
aa(lp443
g354
a(I3
I49
tp444
a(I19
I77
tp445
a(I16
I97
tp446
a(I10
I125
tp447
a(I9
I147
tp448
a(I1
I161
tp449
a(I10
I195
tp450
a(I6
I209
tp451
a(I17
I210
tp452
a(I16
I251
tp453
ag365
ag366
ag367
ag368
ag369
ag370
ag371
ag372
ag373
ag374
ag375
ag376
ag377
ag378
ag379
ag380
ag381
ag382
ag383
ag384
ag385
ag386
ag387
aa(lp454
g354
a(I16
I48
tp455
a(I11
I70
tp456
a(I14
I90
tp457
a(I11
I112
tp458
a(I14
I132
tp459
a(I1
I154
tp460
a(I8
I195
tp461
a(I21
I210
tp462
a(I6
I237
tp463
a(I17
I231
tp464
ag365
ag366
ag367
ag368
ag369
ag370
ag371
ag372
ag373
ag374
ag375
ag376
ag377
ag378
ag379
ag380
ag381
ag382
ag383
ag384
ag385
ag386
ag387
aa(lp465
g354
a(I5
I56
tp466
a(I20
I76
tp467
a(I14
I90
tp468
a(I20
I125
tp469
a(I7
I147
tp470
a(I21
I161
tp471
a(I4
I174
tp472
a(I5
I203
tp473
a(I1
I210
tp474
a(I5
I238
tp475
ag365
ag366
ag367
ag368
ag369
ag370
ag371
ag372
ag373
ag374
ag375
ag376
ag377
ag378
ag379
ag380
ag381
ag382
ag383
ag384
ag385
ag386
ag387
aa(lp476
g354
a(I3
I49
tp477
a(I3
I70
tp478
a(I5
I91
tp479
a(I4
I118
tp480
a(I4
I139
tp481
a(I21
I168
tp482
a(I5
I182
tp483
a(I14
I209
tp484
a(I23
I217
tp485
a(I7
I245
tp486
ag365
ag366
ag367
ag368
ag369
ag370
ag371
ag372
ag373
ag374
ag375
ag376
ag377
ag378
ag379
ag380
ag381
ag382
ag383
ag384
ag385
ag386
ag387
aaa(lp487
S'GGGTTAATTTGTCGTTCTCTCCAAACTGGACCCTTTTAAAAGCGGTATCCGTCGTTACTATAAGTACCTGCAGCTTCATGTAAAACATACGATAAAGCTAGCCGCACGAAATGTGTGTTTCTCTGTCTAGGCCAGATTGACCTTGAGGATACGGTGGGTACAACATATCAATCCATACGGAATGACTAAGTTGAATAACTTCGTTCCGCCTGTGGCCTGTGTTCATGGGGAGGTCTAGAAAGCGTCTAATATACTCGTAAATTGACCTGCTTCGGTCGTATGGCGTAAGGAGGTCATGCAATAACGAAGCGGCGCACCATACGGATTTGACGAATTCGATTTGAACTAGGGCCGTTTACCTACTACCACAGTGTGTGTTTCTCTGTCTAGGCCAGATTGACCTTAATAACTTATCAATGCGGGGCCCTTTCAGCCTCAACGCGATTACTAGGGATACTGGCGATGGCCGCGATTTTTGATTCAAACTGACGTACTACAGGAGAGACATTTCATCATGCCGCCTGGCCGATGTAGGTCCGGAAGGTTTCTTCTCTCTTCGGCAGGGGCATGGAGAGCCGGTGGGCCTACTAAACGAAGAGTTAGCATATGGCCATATCATCGCATCTCCTGCTGTGTGTTTCTCTGTCTAGGCCAGATTGACCTTAAGTCTCACGAAATGAGGATACGTAACAGCCTGTGATGCAATCCACAGTTAGATAATGCTACGCGGGCGCCGTCTAATTTGTCGGTTGATATCCTGCTAAGTCTCGGATGAACGTGTCGCATCGCGCCTGACCGTCGTGCTTCGCGCTGCCAGAGAACTAAGTTGAATAACTCCATACGCGGTATCGTCCCAAGACTCAGCGAATTCGATGTAGCCTTTCACAAGCCGGTGCGACGGCGCTCTTAAGGATGGCGTATGAAGATTTGACGCGATTCGAGGGGCCCTAAATTAAAAGGATTTGACGGTGGGGTACCTGGCTCAAGGGGGCATAGACATTGAGACCAGCCCATGTATCAATGACCCTTGCCTCTGCCCTTAAAAGGTGGCCGTATATAACTAAAAGGCTCTTCCGAATTCCTTTGGGCGGCGCAATACTGGACTAGGGCTTGCCCGTATGAAATCTAGCACATACGCCATACGCCCTAAAAACTGGATTTTGCTCCAAGACACCATCATCATCGTCTTGGCGGGGCATGTAAAGGTCATCTCCTGCTTCATCATGAATGACTGCTACGCGATGGCCTCAACGAACGAAGTCGCCTAATACTGGACGAAATAAAGTGACGGTATCGCTCTCTACGGCCTGTGAGTCGAGTTCATGGCGGTGGGCGGTATCATGCAATCTAAGGACCACAGTTAGATAACAGCTTCAATAACTTCGCATCAGCTCACATACTGGCATATCAATATATTGTGTGTTTCTCTGTCTAGGCCAGATTGACCTTTCCTAGACACTTCAGAACGTGGGTGTATACGAAATCCACAGTATGTAAAACATACGCCTACTAAAGTAAGGTTGGTGTTAAAAGCCTACTACCACAGTGACAAGTATGCAATAATTTCCTAGACACTTCAAATAACTGAACGTGGACCCTTGACCCTTATACTGGCGGTGGGTATCAATCGGTGGGCCTACTAGAGGATAGGCCTGGAGGCAATGACAAGTGCATTTAGCTGATAATTAGAGTGCCCGAGATCAGTCGAGGAATGACCCTGGCCCATATCAGGTGGAAATACTGGTCGCATCTGCTACGAGTCGAGTTAAAAGGTGGAATAGGCAATCCATACGTAGCCGCATATATTCGAATTCGTAATAGCCCACGTCTTGCAAACCTGAGGATAGGCCTGGCCTGCGTCGCGATTGACAAGTGGAGAGCGGAGAGCAGTCGAGATTGACCAAGTCTCTTCGCCGCAGCTTCCCGTTTAGCATTTAGCTGATAATTAGAGTGCCCGAGATCTACAACAATGCAATGCCCATGGATGTAGTAGCCGCGACAAGTCGATGGCCGTCGTTCACTTCACGAATTCCGCGATTCCTGGCCCATATCAATGTAAACCCTAAAACTTGCGTAAATAGAAAGGTATGAAACATACGTTCGCCGTTCGCCGCGAATTCCGGGCGCTCCTAGAACTATAACCTACTACACTTCAGACCCTTCGTCTTGTATATAAAACGAAGACTAGGGGCATTTAGCTGATAATTAGAGTGCCCGAGATCGCCATTAGGCGTAAACGTACTATATATTATATATTTCCTAGACCACAGTCGTCTTGATATATTCGCTGCCTATATAAGCCCATGCCTGGCCTAGCCGCCCTTTCAGTAAACGTACTATAAAGCGGCCTGGAGGCAATACGTACTAGAGAACGCTCAAGCCCTAAAAATAACTCCATACGCGTCTTGTCCTAGACACTTCAGTCGTATAGGAGCAGTAGAACCAAGCCGGTGCGACGGCGCTCTTAAGGATGGCGTTACGTTAGCCGCTAGAAAGGACAAGTGTATGAACCCTAAAGATTTGACCTTTCAGTATGAACTTTGGGGTCGTATGGCGTAAGAACGTGCCGTTTATACAACATATATAAGTATGTTTCAGCCCATGCAGCTTCGCGGGGCACGAAATAACGAAGTAGAAAGCTCAACGTCGTTCCCGGCGCAACTAGGGATAAAGCCCTTTCAAGTCGAGGCCTGTGATAAAGCAGTCAAGAACTGGATTTTGCTCCAAGACACCATCATCATGTTACGTTTAAAAGCGGTATCGCCATTACCGTTTATACAACATCGTTCCAAGTCTCGATGTAGCTAAGGAGCCTGTGATGCAATGAGGATAACTAGGGGAATGACTTCGCCGACCGAGTGGACCTGGCCATAAAGCGATTTGACATATCATAGGAGGCGGTATCAAGTAAGTAGATAATCCTGCTCGTCGTTGTTACGTGCGGGGCAGGAGCAGCCTCAAGACCCTTGGTGGAAGCATTTAGCTGATAATTAGAGTGCCCGAGATCATTGACCTCATCATCTTGCCCGTAGAACGTTACGTAGTCAAGACTATAAGTACCTGTAAGTTGGTTGGTGCGCTATCGGCTGTAGCGGGGCCCGTTTATACAACAGGCCTGGAGGCAATGAACGTGCAGGACCGGGGAGCCCTGATACAGGCAGGGCATAGTAGCCGCGAGACCACTAAAAGAGTTAGCATCTACGGCTCTAGTAGCCCAGCATTTAGCTGATAATTAGAGTGCCCGAGATCACTTGCGTGCTAAGTATACTCATATGGCTTTAGGAACCGTCGTTTAGGACCCTAAAAATCCATAGGCCGTCCTGCGTGCCTCAATAGAAAGGGCGGAACGAACTTGCCCTCGCCTAGCTCTTCGTGTATGCGTCTTGATATATTGCGCCTGTGCTAAGAACGTCAGGGTTAAAACGTCAGTCTAACGTGTGTTTCTCTGTCTAGGCCAGATTGACCTTAAACTTCGCGTTAATACCTTGGTCTAACCCATACGGTTGATATCCTAGACGCGATTCGGTGATTTTGATTCGAATTCTCATCATGACTAGTCCAACCCTAAAATTGACCGACCCTTTTAAAAGAGGCCGTCGAATTCGACCCTTAGGTTTCGATTTGAACTAGGGGACTAGTCAATTTTGTGTCACGCATTTAGCTGATAATTAGAGTGCCCGAGATCAGACATTACCGACGGAACGAAACGAAATACAGGAGGTCCGGATTAAAAGGGGGAGCCCTGATACGGTATCGTTACGTGGTGGAACGTCTTGGGCGTCGTATATATATTTCCTAGAAGTCAAGGCCTGTGATGCAATCAGGACCCGGTATCGCCTGTGGTGGCCGGAGGATACATATCAGGGTGGATGCTTCGCGTCTAAGTGTGTTTCTCTGTCTAGGCCAGATTGACCTTTTTGTCGGCGTTAATAGCCGCGCGGGGCCACCACTAAAGTGAATGCAATGACAAGTCTAAAAGAACGAAGGGGGCATGTTACGTCACTTCAGGGTTCCTTGGACAAGTCGCGATTTTCGGCACGCGATTAACGAAGCACTTCAAACGAAGAATAACTAAACTTCCCGTTTACACCACTCACCACTTTCTCTCGTGTGTTTCTCTGTCTAGGCCAGATTGACCTTCAAACTGTGCTTCGAAACTTCTACAACAGTCCCAACCACAGTCGCGATTAACGTCAATGCAATCGAATTCGTGTATGAACGAAGAGTCGAGGGCGTCGTATGCCATTAGTGGAATCGGTGATGACCCTTGTATGAATGCTAAGCGAATTCTAGCCGCCGTAACAATAAAGCTTTAGGAAGACATTGGAGGTCGCATTTAGCTGATAATTAGAGTGCCCGAGATCTTCATGGCAGGACCTTCGGCATAGCCGCACGAAATGGCATAGCAAACCTAAAGTGACCTTTCATTAAAAGCGGTATCTAGGAGGAGGAGCAGTAGAACCGCGACGAAGGTTACGTCGCTATCGGCTGTAGCCTGTGGATTTGAACTAGGGGTGGCCGAATCCATCAGGCAGGAGGATAGCTCTTCTTTGATTGGGGAGCCAAGCCGGTGCGACGGCGCTCTTAAGGATGGCCCTGATAAACGTCATCGCCTACATATCACGGTGGGGTGTATGACAGGAGCGGTATCCCATACGATGCAATGCCTGTGCGAATTCAGTCAAGATAGACGTACTCGCGATTATGCAATAATCCATAATAACTGCCTGTGGTCTAACCGGTGATCCTACTAGACTCAGCCTGCGTGTCTAACCGTCTAAGTGTGTTTCTCTGTCTAGGCCAGATTGACCTTTTTGTCGCAGGCAGGTGGAATCGAGGGGTAGCCGCAGGCCGTAAACTTCACCGTCGCCACAGTCAGGCAGAGGAGCAAACGAAGTATATAACTAATATACTCATGCAATGTAGAACCGGGCGCCCTACTAGAGACCAAGTCGAGCCTGATACAAACCTGCGTTAATAGGAGGGGCATAGCAATTTTGCATTTAGCTGATAATTAGAGTGCCCGAGATCGTGTCACCGCTATCGGCTGTACAATTTTCAGGACCGGGGAGCTTTAGGAATACTGGCGGTGGGCGCTGCCCGGTATCGCCTGTGATCTACGAGGCACCTGGGCTCTAGTAGCCCATTAAAAGAGAGAACGCTCAAGGTGTCACTGCTAAGAACGTCAGGTGTATGTGTCACGACCCTTTTCATGGAGACATTTGCTTCGGTGTGTTTCTCTGTCTAGGCCAGATTGACCTTCGTCTAACAAACTGGGAGGTCTTAAAAGGGTCATCAGCTCACGTCTAACGCGTTAACAATTTTCTTTGGGTAGCCGCGACCCTTACTTGCGTTCGCCCATGGGGTGGAGCCATTAGGCATAGCTCAACGGCGCCTGCACCACTAAACTTCATAAAGCATCTAGCCGGTATCAATCCATTTCTCTCTTTGTCGAACTGGATTTTGCTCCAAGACACCATCATCATTTCTCTCCGGTGATGTGTATGGCCTGTGCCGTTTATACAACACACCACTAGGTTTCGTTGATACTAAGGACGCGATTCGAATTCACCGACGGGTGGTACGTGAACGAACGGTATCAACGAAGAAGTAAGTTAAAAGGTCCGGAGCGTTAAATACTGGGCGGGGCATGCAATTGCTAAGAGGCCGTCAAACTGGCATTTAGCTGATAATTAGAGTGCCCGAGATCGGAGGTCTTCATGGTTTAGGAAACGAAGCGCGATTCGAATTCCAATTTTGTGTCACGACCCTTGTTGGTGGACCCTTTTAAAAGGACTAGTTACCTTG'
p488
aS'AATAACTCGGTATCGCCTGTGATGCAATACGAAATGAGGATACATATCAATGCAATAACGAAGCGCGATTGGGTTAATATACTCATCTACGCGGGCGCCGCTGCCAGAGAACCAAGCCGGTGCGACGGCGCTCTTAAGGATGGCGCTCAAGAAACTTCGGGGCATGCTCTAGTTCGCCGTACCTTGCGAATTCGGGGCATGCCTGTGGCGGGGCAGAGAACTAGCCGCAACGAAGCACCACTTTAAAAGCCATACGAATGTAGAAAGGACCCTTGCGTTAACAATTTTATAAAGCGCTCAAGCTTTGGGCGGTATCCGGGCGCCGCTGCCGACTAGTCCTGGCCGGCCTGGAGTCGAGCACCACTGCGTTAAGCATTTAGCTGATAATTAGAGTGCCCGAGATCCAATTTTAAGTCTCGACAAGTAGGCAATGGAGAGCGAACGAAAGAGAACACGTACTTTAAAAGCTCAACGCCGTTTATACAACAGTGTCACCTAAAAGCGAATTCGTCGTATGTAAACGTACTCGCGATTTTTAGGATGCTAAGCCGTTTATACAACAATAAAGCGACCCTTTATATAAGCCCATGACCGACGCGATGGCCGGCGCACACTTCAGATGTAGGACCCTTGTGTGTTTCTCTGTCTAGGCCAGATTGACCTTTTAAAAGATATATTTCCTAGATCGTTCCCGGCGCAGGGTGGATTCGCCGCGCGATTCGAATTCTAGCCGCCATATCAGCGGGGCAACGTCAATGCAATAACGAAGTATGTTCGCCGGCCTGTGGTCTAACAAACTTCGAGGATAACGAAATGAGGATAAACGAAGCCTGGCCGGCCTGGCGATGGCCGTCGTTACTATAACGTCTTGCGGTATCGCCTGTGGCATTTAGCTGATAATTAGAGTGCCCGAGATCATGCAATTCGTTCCCCCTAAAGTACCTGGGGGCATGGAGAGCAGGCAATCTTTGGGATGCAATCATATCAAAGTAAGACGAAATCACCACTTTAAAAGCGGTATCCCTGGCCACGTACGTAAGGCCTGGGAGACCAGACCCTTGCGTTAAGCGGGGCCTAAGGAGCGGGGCGGCGTAAGCTCAAGGAACGTGTGCTACGGAACGTGTAAGTTGTCCTGCTGTGTCACAACGAAGCAAGCCGGTGCGACGGCGCTCTTAAGGATGGCCGCGATTCTCAACGTCGCATCTAGATAAACTTGCGTAGATAAGACCCTTCGGGCGCGTCGTATCCGTTTATACAACACATATCACAATTTTCGAATTCACCGTCGAGGCAATACTAGTTTGAGAACGTGAAACTTCCGCGATTGTGTCACCGCTGCCCCGTTTATACAACAACTAGGGGGGGCATTTAAAAGGCCCATGTAGCCCATGCTACGGTCTAACCTTTGGGCGAATTCCAAGCCGGTGCGACGGCGCTCTTAAGGATGGCGACCCTTTTAAAAGAACGTCAGGAGAGCCGATGGCTATATAACGGTATCGCCTGTGGATTTGAATAAAGCTAGCCGCCGGGCGCGACCCTTTTAAAAGGTCTAACACGAAATGACATGCTAAGAACGTCACGGTATCGAACGTGGGGGCATACGAAATAATAACTCCATACGATGCAATGGCGTAAACGTACTCGGCGCATTTAGGATGCTAAGCGGTATCGCATTTAGCTGATAATTAGAGTGCCCGAGATCGCCTGTGACATACGGATGTAGTCGTTCCGTACCTGGTCGTATAACGAAGTTCGGCACCACAGTGAGGATAACGAAATAGGCAATGCCTGTGGTTGATATTTAGGAGCGGGGCCCGAGACCCTTCTAAAAGGCGCCTGCAAACCTGGCCTGGGAGGATAATAAAGCCCTACTATAGAAAGCGCTGCCTAGAAAGTAAGTTGTCGTTCCAAGTCTCTATCAATCTAAGGAGCATTTAGCTGATAATTAGAGTGCCCGAGATCAAGTAAGCCTTTCATCCTGCTCGTCGTTTAGATAACGGCGCAAGAGAACCGGTATCCGGTGGGTAGCCGCATAAAGCCCTGGCCAAAGTGAGACCCTTGAGACCATTAAAAGATGGTATATAAACCGTCGTTAAAAGCGGTATCTTCGCCGTAGCCGCGTTGGTGATACTGGGCCTGTGCTCAACGCGATGGCTGCTACGCGGGCGCTCGCATCGTATGAACGTCGTTCAAGCCGGTGCGACGGCGCTCTTAAGGATGGCACTATAAACATACGTATCAATCGCTGCCTGCTACGGGAGAGCCTAAGGAAAGTAAGGTTGGTGCAAACCTTATATAAGCCCATGGCCTGTGGTTGATAGCGCCTGGCCGCCTGGCCAGGTTTCATGCAATAACGAAGACGTACTAAAGTGAGTGGCCGCTAAGGAAAGTAAGGTTGGTGTAGATAAAGAGAACGCTCAAGATGTAAAGTACCTGTAAGTTGGCATTTAGCTGATAATTAGAGTGCCCGAGATCTAGATAAGAATGACCAGCTTCCTTTGGGGTACCTGTAAGTTGCGCTATCCTTTGGGCTCAACGACAGGAGGTCGTATGGCGTAACGCGATTACAGGAGGTCCGGAGGCCTGGGCCTGGTATCAGGCAATCGAATTCGTGGCCGCGAATTCTACAACATAGAAAGGTCCGGATTAAAAGGCTCAAGGGCTGTATAAGTTGACTATAACTCAACGCGAATTCGTTGGTGTGCTACGGTGTGTTTCTCTGTCTAGGCCAGATTGACCTTGGAGAGCAACGAAGCGCGATTCTAAGGAACTATAAGTACCTGTAGGAGGCGAATTCGACCCTTAGGTTTCGCGGGGCCCGTTTACAAACCTAACGAAGCGCGATTGAACGTGTACAAGTTTAATACTGGAGGTTTCATGCAATAAAGTGACTAAAAGCATATCAGTTGATATTTGATTCGCGATTGTGGAATACTATAACGTCGTTAAGTAAGATGTAAAATGCAATCGATGGCAACTGGATTTTGCTCCAAGACACCATCATCATCGGCGCAGAATGACCAGCTTCGTTGGTGTCGTTCCCGTCGTTCCTGCGTTCGCCTAGCTCTTCGCGCCTGACCGTCGGAGACCAGTGGCCGACAGGAGGTCCGGACGGTGGGCCTACTACCACAGTCGGTGATGTGTATGAATCCATGATGTAGTTTAGGATGCTAAGCCATACGGATTTGAACTAGGGTTTAGGATGCTAAGAACGTCAAACTGGATTTTGCTCCAAGACACCATCATCATGTCTAACAAACTTCGTGTCACAGACATTGAGGATAAATAACTAACGTCAGCTCAAGAAGTCTCCAGGCAGAAGTAAGAGGCCGTAATAACTCCCAATAAAGCCCTGATAGTTGGTGGGGTGGATCCTGCTCTTTGGGCTCAACGCCACAGTCATATCAGCGGGGCCAATTTTCACCACTGCGTTAAGCATTTAGCTGATAATTAGAGTGCCCGAGATCCAATTTTGTTGGTGGCGTTAACCGTTTATTCATGGCCTACTACTAAGGAAGCTCACTCGCATCACCGACGTGCTTCGGGGGAGCTAGCCGCCGTGATGCAATCAGGACCCGTCTAATTTGTCGTATCAATGGTGTATCGCTATCCGGTGGGGGGTGGAACCGACGCACCACTGAATGACCAGCTTCCAAGCCGGTGCGACGGCGCTCTTAAGGATGGCATGTAAAGTCTAACAAACTTCGAACGAAACTTGCGATACTGGGGCTGTAATGTAAAACATACGTTCTCTCCGCGATTCGAATTCAACGAAGTTCGCCCATGCGCGATTCGAATTCAACGAAGCAAACTGGGAGGTCCAGCTTCTAGGAGGGTGGAATTAGCCCAGACTAGTTACCTTGAACGTCAACATACGTATCAATGCATTTAGCTGATAATTAGAGTGCCCGAGATCTCGCATCGACCCTTTGCTAAGGGGTTAAATAAAGCGCTCTAGCCTGCGTGTTGGTGGAATGACTTCATGGGACTAGTATGCAATGGGGCATCGGTGACTGGCGGGCGCAGACATTGAACGAACCTTTCAGGTCATCAAGTAAGTCGCCTAGGAGGTCTACAACATATACTCAAGTAAGGTGTCACTCCTGCTGCATTTAGCTGATAATTAGAGTGCCCGAGATCAAGTCTCCACCACTCTAAGGAATCTACGCGTCTAACAAACTGGCTCTTCAAACTTCATCTAGCGTATGAATAGCCGCACTAGGGCGCTGCCGATTTATACGAGAGAACCTAAGGAGGCATAGCCCTAAAAGAGAACGTCTAACTTTGATTACGAAATTGCTTCGGCTCTAGGTCTAACAAACTTCGATGTAGGCATTTAGCTGATAATTAGAGTGCCCGAGATCTTTAGGATGCTAAGAACGTCATAGCCCAACTTGCGGGTGTATTTCGGCACGCTATCCGCTGCCCGTCTTGATATATTCTCAACGGCTCAAGCTTTGGGCATATGGATACTCAACGGCTCAAGCTTTGGGTCCTAGAGGGGCATCGGGCGCGGCTGTAGGTCATCAGCTCACGGGTGGATTTAGGATGCTAAGAACGTCACAAGCCGGTGCGACGGCGCTCTTAAGGATGGCGTCTAACCTTTGGGGTGTCACACCGACGTTTGTCGATCTAGCTAGGAGGGACTCAGTAGCCGCCACTTCACCATACGAGAGAACCTAAGGAGAGGACTAGGGCGCTGCCGATTTGAATACTGGATAAAGCCGAGGGGCACCACTCGAGGGGTTCTCTCTTTGTCGCAATTTTCTCAACGGCGTTAACAAGCCGGTGCGACGGCGCTCTTAAGGATGGCCAATTTTGTGTCACGCGTTAATTCTCTCTATACTCGACTCAGGCGTTAATTTGATTTACAACACGGTGGGCGGTATCCGGGCGCTAGAAAGGGCTCCTACTAGGGGCATGCCTGTGTACCTTGCCGTTTATTCGGCAAGACATTGTCCCAAATCTACGTAGCCGCCACCACTTTTAGGATTAAAAGGTGTGTTTCTCTGTCTAGGCCAGATTGACCTTCGGTATCGTCTAACAAACTTCACGAAATATATGGCCGTAACATGCTTCGCATATCAGCGGGGCGGGTTAAGATTTGAACTAGGGCCACAGTGCCCATATAAAATAACTCCATACGCCATACGTATACTCATCTACGGAGGATACGTCTAATTTGTCGAGTTAGCGAGGATACATATCAAACGTCAGCCTGTGATGCAATGTGTGTTTCTCTGTCTAGGCCAGATTGACCTTAACGAAGTTTAGGATGCTAAGGCGGGGCGGAGGTCTTCATGGTTCTCTCGTGTCACACGAAATGCTCTAGCCACAGTAATAACTGATTTGAGGCGTCGTATACTAGGGTTAAAAGCCTACTATAGCCCAGCTCTTCCAATTTTCAAACTGGGGTTAACAAACTGCCGTTTACAATTTTGTGTCACCGCGATTGTGTGTTTCTCTGTCTAGGCCAGATTGACCTTCGAATTCCACCACTGCGTTAATACAACAGACTAGTTACCTTGGGAGGTCCCTGCGTTCGCCTAACTTGCGAGTCGAGGACCCTTATACTGGGTTGGGTAAGCGGTGGGAATAACTGACAAGTATACTGGGTCCCAAGTGGAATTTCATGGCGTCTAAGAACGAAATAAAGCGCTCAAGAAACTTCGGGGCATGCATTTAGCTGATAATTAGAGTGCCCGAGATCCGGGCGCCGCTGCCAGAGAACTAGCCGCAGACATTTGCTTCGAGTTAGCATATGGCCGTAACACGGTGGGCCTACTACCACAGTCCTACTACCACAGT'
p489
aS'CCCTAAAGCCCATGTTCGCCGCCTGGCCGGAGAGCCGATGGCCGGCGCACAAACTGGGAGGTCTTCATGGATGCAATAACGAAGCGCGATTGTACCTGTAAGTTGTAGATAAGTGTGTTTCTCTGTCTAGGCCAGATTGACCTTTGCTACGGGAGGTCACTATAACGAATTCCAGGCAGGCCTGTGGAATGACGCCTCAATTCTCTCACGAAATCGTCTAATGCTACGGGCCTGGCACCACTTATATAACGTCTTGCAAACAATTTTACGTACTGCGTTAACAATTTTTAGATAATTTGTCGTTCTCTCTTTGTCGGACCCTTTTAAAAGCGGTATCGGCATAGTAGCCGCCGTCGTTTTCATGGGAATGACGCATTTAGCTGATAATTAGAGTGCCCGAGATCCAGCTTCCAGCTTCTCGTTCCAGTTAGCTTAAAAGTTAAAAGCGGTATCCAAACTGCGTCTAACAAACTGGGAGAGCTAAGTTGGTGTCACACTTGCGGGCGTAAGTGTCACTATTTGCTTCGGTCGTATTAGAAAGGTCGTATGTACCTGCGATGGCCGGCGCATGCTTCGGGAGGTCTTCATGGGACCCTTCGGTATCGCCTGTGGTGTCACATGTAAAACATACGGTGTGTTTCTCTGTCTAGGCCAGATTGACCTTTATCAATGCGTTAACAATTTTATGCAATCGCGATTCGAATTCTAGAAAGGTGTCACAGACATTACGAAATCGTCGTTACTATAAGGCGTAACTAAAAGTAGAAAGCGCGTTCTCTCGAGACCAACGTACTTATATAATCGTTCCGAGGATACATATCACAATTTTGTCGTATGGCGTAAAACGAAGAACGAAGCGCGATTCACCACTTCGCATCTCCTGCTGCATTTAGCTGATAATTAGAGTGCCCGAGATCAAGTCTCACATACGAAACTTCCGAATTCCGTAACAATGCAATACGTACTATGCAATGCGTTAAGCGGGGCTTCATGGCGGCGCAGCCCATGTTAAAAGACCGTCGCAAACTGGTCGTGAAAGGGAGGTCTAGCCCAGACCCTTTTCGCCGTGCTACGGGAGGTCCCGTTTATTCTCTCGCCTGTGTATATAAGACCCTTATATGGCCCTTTCAGAATGACATGTAAAGATGTAGAACTGGATTTTGCTCCAAGACACCATCATCATACGAAATCGATGGCGGTGTATGTATGAAGTCGTATTAGCCGCGCCCATGATGTAAATTTGTCGTACAACACATATCATAGATAACCTGGCCGAACGTGGCTCTAGTTCATGGTCCTAATATTAGTTAGCAAACTTCAGGCAATGGCCTGGTGCTTCGGAGGATAATAAAGCCTTGCCCCAGCTTCTTCGCCGAATCCATTAGAAAGCCCTAAACAAACTGGGAGAGCGAGGATAGTGTGTTTCTCTGTCTAGGCCAGATTGACCTTCATATCAGCGGGGCTTCTCTCCGTCTTGATATATTGTGTATGCCTGGCCGGCCTGGTCATCATTAGCCGCTCGTTCCAGACATTAGGCAATGAACGTGGTCTAACATATGGCCGAATGCTAAGAACGTCACAAACCTGACAAGTAGTCGAGCGTCGTTGGTGGAAATTGACCAGGCAATAGGCCGTCGGTGATTCCTAGACGTCTAATTTGTCGCCGTTTAAACTGGATTTTGCTCCAAGACACCATCATCATTACAACAGGTCATCTGCTTCGCACTTCATACAACACCTGATAGAACGTGTGCTTCGGTTACGTACTATAAGTACCTGCACTTCAAAAGTGATATACTCTTTAGGAGACTCAGGCTACACTTCAACTTGCGATCTACGGGGTGGATCCTAGATAAGTTGGCGGGGCAGTCAAGCGTCTAAACATACGGGGGAGCATAAAGCGGCGTAAAGACATTAGCTCACCGGCGCAGCATTTAGCTGATAATTAGAGTGCCCGAGATCTTTAGGAAACGTCAGTGTCACACGTACTCGGTATCCAGGACCTATCAATAAACTTCGTTACGTCCGTTTAGGAGAGCATATATTACCGACGGTTGATATAGCCCAGACAAGTGGGAGGCGTAAGCTCTAGGCGCCTGCGGTATCCGTCTTGCGATGGCTTTAGGAGTAGAACCACCACTAACGAAGGAACGTGGCCTGTGGTCCCAACAATTTTGTCTAACTATCAATGCATTTAGCTGATAATTAGAGTGCCCGAGATCTCGCATCCACCACTGCGTTAAGACTCAGGGCCTGGAGGCAATCGCGATTGCCATTAAGGAGCATGCTAAGGTATGAACCCTAAAGCCTGTGTATACTCATCTACGACAAGCCCATGGGGTTAAATGCAATAACGAAGCCTTTCAAACGTCAGTCTAACGATGTAGCGAATTCAGACATTCCTGGCCCGAGGGGATCTAGCAAACTTCTCCTGCTAAGTCTCGCATTTAGCTGATAATTAGAGTGCCCGAGATCGATGTAGAACGTCAGTCTAACGGTCATCGCCCATGTTCGCCGTGCTTCGTCCTGCTAAGTCTCAAACTTCATAAAGCTAGCCGCCGCGATTGACTAGTTACCTTGTTCGCCGGACCCTCGAGCCTGGCCAGGTTTCGAACGAACGAATTCTGCTACGTACAACACACCACTGTCTAACTCGCATCCGTCTAATTAAAAGTATATAAAGCTCACTGCTAAGTGCTAAGAGTTAGCCAAGCCGGTGCGACGGCGCTCTTAAGGATGGCATATGGCTAGCCGCTTTAGGAGGTGTATAGTCGAGGACCCTTTTTGTCGTGCTAAGAACGTCAGCGTTAATAAGTTGTAGATAAGGGTGGAACAGGAGGTCCGGAGGCCTGGATCTAAGGGGAGGCAATGGGTTAAGTGGCCGACCGACGACTATAAGTACCTGCAATTTTAGACATTTTTAGGATTCTCTCCCGTTTAGACAAGTACGAAATATCTAGCATAAAGCCGTAACAGCATTTAGCTGATAATTAGAGTGCCCGAGATCGTCCCAAGACTCAGCGAGGGGGAGGATACATATCAGCGGGGCCAAACTGGGAGGTCTTCATGGGTGTCACTCGTTCCCGTCGTTGAACGAAGACTAGTTACCTTGGAACGTGACGAAATGAGGATACAAACTGGGAGGTCTTCATGGAAGTCTCGATGTAGCAAACCTGAACGAAGACTAGTTACCTTGTGCTAAGAACGTCAGTCTAACAACTGGATTTTGCTCCAAGACACCATCATCATAAACTTCGACTAGTTTTAGGAGGGTTAATATCAATACCGACGAAAGTGATTAAAAGTCCTGCTCAAACCTAGACATTTTCTCTCCATATCACGGCGGTCATCTTTGTCGTGCTTCGCGTCTAATCGCATCCGGTATCGCCTGTGGGGTGGATCGCATCTCCTGCTTAGCCGCTACCTTGGGGTTAAAACTGGATTTTGCTCCAAGACACCATCATCATTATACTCGTTACGTGGCATAGAAGTCTCATACTGGTTCGGCAATGCAATATGCAATTATCAATTTTGTCGAGGTTTCCGTCTAAAGCTCACAGTTTTAAAAGTGCTTCGGTTGATAGCGCCTGACATACGAACGAAGCGCGATTTTTGATTCGGTGGGCCTACTACAGGCAGGGTGGAAATTGACCAACTGGATTTTGCTCCAAGACACCATCATCATTCATCATGTGTATGAATCCATCCACAGTTCGCCTAGCTCTTCCGAATTCCAGCTTCATGTAAAACCGTCGTAGCCGCAGACATTCGGTATCTATATGTACTGCCTGTGATGCAATATAAAGCGAGACCACTAAAAGGAATGACGACCCTTTTAAAAGCCTGCGTAATAACTCCATACGCGGTGATCTTGCCCGCCTCAAGCATTTAGCTGATAATTAGAGTGCCCGAGATCGCCATTAGCTCTAGAGGCCGTGATTTGAGACCCTTGTGGAATCGGTATCCGCGATTAGTCGAGGAATGACCAAACTGTACAACAAACGAAGTTTAGTGTATCGCGATTGTCCGGATTCTCTCCAGCTTCGCCTGTGAACGAAGGCCTGTGGATGTAGGATGTAGACTAGGGAGTCAAGATCTACGAGGAGCACAAGCCGGTGCGACGGCGCTCTTAAGGATGGCGTAGAACGCGTTAAGTTACGTGAATGACATCTACGAAGTCTCATGCAATACAGGAGCGGTATCATGTAAAGTGGCCGACAGGAGCGAATTCCCGTTGGGGCTTTAGGATTCATGGAAAGTGAACATACGGACCCTTGTGGCCGAACGAAGACATACGTATACTCCAGCTTCGAACGAACACCACTGTTACGTGTGTGTTTCTCTGTCTAGGCCAGATTGACCTTAGTCAAGGTTACGTACCGACGATGTAAAACATACGATGTAAACGCGATTCGAATTCTTCATGGTATCAATTCGCATCGGAGGTCTGCTAAGAACGTCAGTCCCTAACAGTCTAACTTCTCTCCAAACTGTCCTGCTCAAACTGGGAGGTCCCTTTCAGAATGACCAGCTTCTATCAATACTTGCGGGGTGGAGGTGGAAAACTGGATTTTGCTCCAAGACACCATCATCATATTGACCAGGAGCATAGCCCATCGCATCTCGCATCTTCGGCAGTATGAAGACCCTTTTCTCTCAAGTCTCAAAGTGATTTGTCGAAACTTCATGATACAACACGTCTAAGTGGCCGACAGGAGTTTGTCGTTAAAAGGTCCGGATTTGATTTCCTGCTGCTCTAGGCTCTAGGTAGAACCAATTTTGCATTTAGCTGATAATTAGAGTGCCCGAGATCGTGTCACGGGGAGCATCTACGTAGCCCAGGCTGTAGCTCTTCAGGTTTCCACTTCACGTCTAAGTCCGGAGCGGGGCTGCTTCGATAAAGCTAATTGCTAAGAGACATTCCGTTTAGGAGGTCTGCTTCGGACAAGTCGAATTCTCGCCTATAGGAGGTTAAAAGTATACTCCCTGATATAGCCCACAAGCCGGTGCGACGGCGCTCTTAAGGATGGCACTTGCGTACCTTGGGGTTAACGGTATCGTGGAATCCTGCGTCAAACCTCTAAAAGAGACATTTTCATGGGAGACCACTAAAAGAACGTCATTTGTTCTAAGTCTAACAAACTTCACCGTCGTTTAGGATGCTAAGGAGACCAAAAGTGAGTGGCCGTAGGAGGGCCTGTGATGCAATGACTAGTTTTAGGATGCTAAGGCATTTAGCTGATAATTAGAGTGCCCGAGATCAACGTCAACCGACGGAACGAAAACGAAGCGCTATCGGCTGTAACAGGAGGCGCCTGACCGTCGAACGTCAGTTGATAGCGCCTGCACCACTAGACAGCCGCGCGTTAACATATCAAGGTTTCGTCTAACTCCTAGAGTTGATAGTCCGGACGCTATCACTTGCGCGCGATTCAGGACCGGGTGGAGTCTAACCAAGCCGGTGCGACGGCGCTCTTAAGGATGGCAAACTTCCTTGCCCGCCTCAACGAATTCAAGTCTCGATGTAGAGGTTTCCGTCTTGATATATTAAACTTCACGAAATGAGGATACAATTTTGCGTTCCACTGTGTCACCAAACCTGATGTAGCACCACTCTAAAAGCCCTAAAGTTGATATATCAATTCCTGCTGAATGACGCCATTATCATCATCACCACTCAAGCCGGTGCGACGGCGCTCTTAAGGATGGCGCGTTAACAATTTTGTGTCACCAGCTTCATGTAAAACATACGGCGCCTGACCGTCGGAGACCAGCGTTAACAATTTTGTGTCACCCTTTCAGTATGAA'
p490
aS'GCCTGTGTTAAAAGCGGTATCGCCTGTGCACTTCAGACAAGTAGTCGAGGTGTCACGAATGACCAGCTTCTTTGTCGTTCTCTCCAAACTGCACCACTGCGTTAACAATTTTAACTGGATTTTGCTCCAAGACACCATCATCATGTGTCACAGTCGAGAAACTTCGGAGGTCCGCGATTCGTCTAAATGTAAACGTCTTGCAATTTTTTTAGGACCCTAAATCCTAGAATGCAATAACGAAGGACCCTTATGCAATACCAGTATGAATAGCCGCCGCGATTCGAATTCATATATTCGTCTTGATATATTGCGTTAAATATATTTCCTAGATGCTTCGCGAATTCGAATGACGTCTAACATACTGGCGGTGGGCAAGCCGGTGCGACGGCGCTCTTAAGGATGGCCCTACTAGCGGGGCAACGTCACAGCTTCTGCTTCGAGACATTCACTTCACGAATTCCACCACTTCCTAGAGCGTTAACGTCTTGCCTTTCAGAACGAAGGCATAGCCCTAAAGTAACGTCTTGCAGGCAGGACTAGTTACCTTGCCCTAAACAATTTTGTGTCACAAACTTCGAATGACCAGCTTCGTTGGTGCGTCTAATTTGTCGTGCTAAGCCGTTTATACAACAGTGTGTTTCTCTGTCTAGGCCAGATTGACCTTATAAAGCCGGCGCATTTAGGATTCTCTCCTAAGGAAAGTAAGATGTAAAAACGTCAGTCTAACGCCATTACCTTTCAGTATGAAGGGTTAAGTGTATGAATCCATATGACACTTCACGGTGATTATACTCATCTACGTAGCCGCAGGAGCAGTAGAACTGCTAAGACATACGTATCAATCTCAACGCAAACTGGGAGGTCCGATGGCTAGCCGCAGACATTGCATTTAGCTGATAATTAGAGTGCCCGAGATCTGCTTCGAATAACTGGAGAGCTTCATGGACATACGCTTTGGGTCGCATCAGTCGAGTTTAGGAGTTACGTGACAAGTATAAAGCGCTCTAGCCCTAAAAGGCCGTGACAAGTATATATCTTGAGTCGAGACCGACGGTATGAATAGCCCACACCACTCACTTCAAGTCAAGCGCGATTGACAAGTTCCTGCTAGACATTATGTAAAAGACATTCATATCACCACAGTCGTCTAACAAGCCGGTGCGACGGCGCTCTTAAGGATGGCTTTGTCGATATGGCGAGGATATGCTTCGGGGTGGAGTTGGTGAAGTCTCTATCAATAACGAAGGTTACGTAACGTCAAAACTTCACTTGCGCGCGATTGGGTGGAGCCATTACGCGACGAAGAGGAGCAATGCAATAACGAAGAGACATTGTATGAATGCTAAGGGTGGAACCCTAAAACATACGGATGTAGAACGAAGTTCATGGCGTCTAAGACAAGTAGTTAGCTTCTCTCCAAGCCGGTGCGACGGCGCTCTTAAGGATGGCCAAACTGGGAGGTCCACTTCATTTGTCGTTCTCTCATGCAATAGTTAGCATATGGCGTATGAAATTGACCTCATCATCCTTTCATGCTTCGCGTCTAAGCCTGTGGTAGAACGTAGTTAAAAGCGGTATCTTTGTCGCGCGATTCGAATTCCTTGCCCGTGTCACCCTTTCACGTAACACGGTATCGCCTGTGCAAACTGATATATTTCCTAGATTCATGGAACTGGATTTTGCTCCAAGACACCATCATCATTCGTTCCGGTGTATCGTCTTGGGAGGTCCTAAGGATTAAAAGGTCCCAAGCCTGTGCAATTTTGCCTCAAAACGTCAAACGAAGTTCTCTCGATTTGAGACCCTTGTTACGTGGATCGAATTCTAGCCGCACTAGGGCGAATTCATGCAATGTCTAACGTCTAACGCGTTAAATGCAATTCGCATCGACCCTTAAGTAAGACCGACGCCCTAAAACGAAATCGTAACAGTGTGTTTCTCTGTCTAGGCCAGATTGACCTTGTCCCAATAGATAAGTATGAAGAACGAAAGAGAACACTTGCGTCCTGCTAGCTCACCACCACTAAACTTCCCGTTTAGCCTGTGCAGGACCGGGGAGCGGCATAGGACCCTTGCGGTCCTAGACAGGCAGCCTGATACGTCTTGCGGTATCTACAACAAGTCGAGAAACTTCGGTGTATTTTAGGATAGCCCAGCTCAAGTATCAATCCTTTCATGCTACGCCATACGCAAGCCGGTGCGACGGCGCTCTTAAGGATGGCGATTTGAAGCTCACGGTGTATTCGCATCATCTACGGCTCTAGTGCTAAGAACGTCAGTCTAACCGCTATCGACCCTTTTAAAAGATATATTGTGTATGAATCCATCAGTAGTCGAGCGGTGATTCCTAGACACTTCAGTGTCACGGCTGTATAGGAGGTGCTAAGAACGTCAGTCTAACTATACTCTCCTGCTAAGTCTCGGTCATCACTAGGGAGTTAGCCAAGCCGGTGCGACGGCGCTCTTAAGGATGGCATATGGCCGAGGGGATCTAGCGATGTAGTACCTTGGGGTTAAAAACTTCGATGTAGTTTAGGAGTGGAATGCGTTAACAATTTTGACAAGTCCTGATAAGGCCGTTAGAAAGCGGTAAAAAGGTCGTATCAGGACCGGGGAGCAGTCGAGGCGGGGCCACCACTCCTGCGTGGTCATCAAGTCTCCACCACTCGCTGCCGACTAGTGGGGCATTAAGTTGGACTCAGCGTAACAGCATTTAGCTGATAATTAGAGTGCCCGAGATCGTCCCAAACTATAAGTACCTGCGGGCGCGGGGCATCGGGCGCGCGTTAACGAGGGGATCTAGCTCGCCTAGAGGATACATATCAATACTGGGGAGGTCTTCATGGGGCGTAAATTGATGGAAACGTACTCCATACGCAAACTGCGGTGGGTGCTAAGACGAAATGCTCTTCCGGTATCGACTCAGCAATTTTCTCAACGTTCATGGCGCTGCCAGCTCACCGTCGTTGACTCAGGTGTGTTTCTCTGTCTAGGCCAGATTGACCTTCGAGGGGATCTAGCGGTCATCAGAGAACGCTCAAGCTTTGGGGTGTCACGACCCTTTTAAAAGTTTGATTTTCGGCATTTAGGACCTACTACCACAGTAATAACTTATATAAGCCCATGTTCGCCGGTCGTATGGCGTAAACGTACTAGTCGAGAGACATTTGCTTCGCCCTAAACGTCTTGATATATTGGCTGTATAGGAGGGTGGAATAACTGGATTTTGCTCCAAGACACCATCATCATCCTGCGTTCGCCTACGCTATCTCCTAGATAGATAAGTATGAACGTCTAACAAACTGGACAAGTTATATAAGACTCAGTAGAAAGCCTGGCCGGCCTCATCATTTCATGGCGAGGGGATCTAGCCACTTCAGGAGGTCTTCATGGCCTTTCATGCTACGGGAGAGCGCCTCAAGCTCTTCTTTGATTGTGTGTTTCTCTGTCTAGGCCAGATTGACCTTTTCGGCATGCTTCGCTTGCCCCGATGGCTGCTACGACTTGCGGCCATTATTCGGCATCCTAGAGGTCATCCGAATTCGGAGGTCCTTGCCCTTTCGCCTGTGCAAACTGCGCTATCGGCTGTAATATATTGACCCTTTTAAAAGTAGCCCAGGAGAGCCGATGGCTCATCATCGTCTAATTTGTCGGTGTGTTTCTCTGTCTAGGCCAGATTGACCTTTTCTCTCGGTGGAAATTGACCCGGCGCAATCTACGGCTCTAGCGGTATCCCCTAAACGTCTTGTAGGAGGTTTGTCGTTCTCTCATGCAATGACAACTTCAAACGAAGCGCGATTCGTCTAAGTGGAATCCTGCGTGTATGAAGCCTGTGATGCAATTATACTCCAAACCTAAAGTGAGTTACGTCAAACTGGGAGGTCGTGTGTTTCTCTGTCTAGGCCAGATTGACCTTTTCATGGGGCTGTAAGTCAAGGTGGCCGGGGTGGAGGGTTAAAACGAAGGTAGAACCCTTTCATCGCCTAGGTGTATTGCTTCGCGAATTCATACTCTCAAATACTGGCGCGATTAGCTCACGCTCTTCTTTGATTAGGAGCACGCGATTTAGATAACGGCGCAACAGGAGAGACATTCGCTATCCGCTATCGTGTGTTTCTCTGTCTAGGCCAGATTGACCTTGGCTGTAGCTCTTCCGAATTCGTCCGGAGACAAGTTAAGTTGCGAATTCTTCTCTCGCTCTTCTTTGATTTTCGCCGAACGAAGCGGTGGGAGGCACCTGGCCTACTAGTCCCAAGCCCATGTTCGGCATTCTCTCTTTGTCGCAAACCTTAAGTTGCACTTCAAGGTTTCCCTGCGTTCGCCTATAGGAGGAACTGGATTTTGCTCCAAGACACCATCATCATGTGGAATCCTGCGTGTGGAATGTTGATAGCGCCTGGTACCTGAAAGTGAGTGGCCGTTTGTCGCGCTATCGGCTGTACGTAACACCACAGTAATAACTAGTCATACGTCCATACGAGTTAGCATATGGCTAGGAGGTGCTTCGCGTCTAAACAGGAGCGTCGTTACTATAAACCGTCGGGCTGTATAGGAGGTCGCCTAGCATTTAGCTGATAATTAGAGTGCCCGAGATCGCTCTTCAACGAAGCGCTATCGAGACCAACTATAATCGTTCCGTCCGGACCTGCGTAGACATTGTGGAATGCCTGTGTTCATGGGATTTGAAATTGAACGTGGGAGGTCATGCAATCCTGGCCACTAGGGTCGCCTACAAACTGGGTGTATGTACCTGAGTCGAGTTCGGCACGCGATTTTTGATTGCATTTAGCTGATAATTAGAGTGCCCGAGATCTTCGGCAGTAGAACTTTGATTAGTTAGCGACTAGTAGCTCACGGAGGTCGAGACCAGATTTGAGGCCTGGTTCGGCACAAACTGCCTTTCACGTTCGGTGGGTTCTCTCAGACATTTTTAGGACCATACGCTAAAAGGTTACGTGGTCATCTACCTTGACCGACGGCTCTTCGTTACGTTAGGAGGGCATTTAGCTGATAATTAGAGTGCCCGAGATCGTGGAATCCTGCGTTCGCCTAGAACGAACGAGGGGATCTAGCAGTCAAGCCACAGTAATAACTTGCTAAGCGTCTAATTTGTCGCCTACTATCCTAATATTCCACAGTAATAACTTGCTTCGAACGTCAGTCTAACCCTACTAGTTACGTGGTGGAAGACTCAGGACTAGTTACCTTGGTGGAATCCTGCGTTCGCCTAAACTGGATTTTGCTCCAAGACACCATCATCATGCTCTTCGGCTGTATAGGAGGGGGTTAACGTAACAGTCCCAAATTGACCATACTGGCGGTGGGAAACTTCGAACGTGAGACATTCCATACGCCCTAATGAAGATTTGATTTGATTAGGCAATCACCACTACCGTCGTTCATGGTCATCATGAACGAAATATGGCTATACTCAGGAGCACGCTATCTTTGATTGCATTTAGCTGATAATTAGAGTGCCCGAGATCTTCGGCATTCGGCAGCCATTAATCTACGGGGTGGAACCGACGCTTGCCCGTTGATAGCGCCTGGCGTTAATCGCCTAGCTCTTCACTAGGGCCTTTTAGGGGACCCTTCGGTATCCCTGCGTCAATTTTGTGGAATAGGTTTCGCCTCAACGTCGTTCTAAAAGGCTCTAGATGCAATTTTGATTGACCCTTAACTGGATTTTGCTCCAAGACACCATCATCATTTAAAAGCGGTATCGCCTGTGTAGCCCAACTTGCGTCGTTCCCGCTATCGGCTGTATAGGAGGGTGTCACGACCCTTTTAAAAGTTAAAAGCGGTATC'
p491
aS'TGCTTCGGCGTTAACAATTTTGTGTCACAAACTTCCACCACTGCGTTAACCCTAAACGTCTTGATATATTCACCACTGCGTTAACAATTTTTAGAAAGGTCGTATGGCGTAAGCATTTAGCTGATAATTAGAGTGCCCGAGATCACGTACTCAGCTTCGAACGTGGTGTCACACGAAATAAACTTCTCCTAGACGCGATTGTATGAACAATTTTAGTCGAGGTCTAACTTTAGGAATACTGGCACCACTCGTCTAATATGTTCGCCGAAACTTCCGGTGGGCCTACTAAACGTCATTTAGGATGCTAAGCCTTTCACGAATTCCCTTTCAGTCTAACGAGGATACATATCAAGGCAATATGTAAAACATACGAACTGGATTTTGCTCCAAGACACCATCATCATTATCAATCGGTGATGGCCTGGGCGGGGCCCGTTTAAACGTCAGTATGAACCTGATAAGTCGAGAACGTCACGTCTTGTGCTAAGCCACAGTGTCTAACGTCTAACCCTGGCCGGGGGACCCTTAACGTCAAAACTTCCACCACTTTTAGGAATATATTTCCTAGAGACAAGTAGGCCGTCGGTGATTGCTAAGTACAACAATAAAGCCCTGGCCGTGTATGAATCCATCAAGCCGGTGCGACGGCGCTCTTAAGGATGGCCAGGCAGGCCCATGTTCGCCGTAGCCGCACTTGCGTTTAGGAGTGTATGTCCTAGACACTTCACACTTCAAGCTCACGGTGTATGCGTTAATTTAGGATGCTAAGTTTCGCCTGTGCGAATTCCAATTTTGTGTCACGGTCATCGACAAGTAGTCGAGATATATTAATCCATCAGGCAGTAGCCCAGACCCTTTTAAAAGTATATAAGGCATAGTAGCCGCGCATTTAGCTGATAATTAGAGTGCCCGAGATCGGGTGGATCCTGCTACGTACTCGGTATCTACAACAGCTCTAGGGCATAGCGTCTTGCGTCTTGATACTGGAAACTTCATCTAGCATACTGGCCATACGCGCGATTATGCAATAGGCACCTGGAACGAAGAACGTCAAATAACTCGGTGGGCCCTAAAGTCTAACCGGTGGGGGGGAGCCCCTAAATAGCCGCGCGGGGCCCGTTTAGCCTGTGAGGCCGTTCGCATCACCGACGCAAGCCGGTGCGACGGCGCTCTTAAGGATGGCGAACGAAGCCCATGCCTGATAATGCAATGAGGATACATATCACCTTTCAGACAAGTCAGGACCCCTACTACGCTATCGTATGAACCTACTAAACGTCATGCTAAGCGCGATTTTCTCTGTCGCGAATTCGTTGGTGTGCTAAGCCACAGTGACAAGTGTGTCACCCACAGTAACGAAGCACTTCAGTATGAAGGTGTATACGAAATAACGAAGGAATGACTATATAAGACTAGTCAAGCCGGTGCGACGGCGCTCTTAAGGATGGCTACCTTGGGGTTAAGGTGTATCGCGATTCGAATTCAGCTCACCCCTAAACGTCTTGATGCAATAATAACTCCATACGCACTTCAAATAACTCCATACGAAGTAAGATACTGGCGTACTCAACGCTAAGGAGATTTGAATATATTTCCTAGAGATTTGACGGTATCGCCTGTGATATATTATCTAGCGGTCATCGGGTGGAGGTCATCAGCTCACTATACTCGTGTGTTTCTCTGTCTAGGCCAGATTGACCTTATCTACGCAGGACCATCTAGCACCGACGACGAAATCGAGGGGTCCTAGATTTGATTTTAAAAGACTAGGGTTCGGCACGTCTTGACTAGGGACTTGCGCTTTGGGCCACAGTCGCGCAAACTGGCTCAAGTTTAGGAGTCTAACCCCTAAACCTTTCAGGCTGTAGACCCTTTTCGGCAAGTCGAGGACTCAGGAGGATACATATCACGAGGGGGGGGAGCTTCGCCGGCATTTAGCTGATAATTAGAGTGCCCGAGATCCCTGGCCGTCGTATGACTCAGGCGGGGCTATACTCGTCCCAACGCTATCGTATGAATTCGGCATAGGAGGGACTCAGGTATGAAAAACTTCATGCAATAGAGAACGGAGGTCTAATGAACGTGCGCTGCCAACGAAGGATTTGACCTTTCACGAGGGGCACCACTTTTGATTCCCTAAAATATATTCGTAACAATCTACGATAAAGCGTCCCAAGGCGTAAAAGTCTCAACTGGATTTTGCTCCAAGACACCATCATCATGATGTAGATATGGCCGTAACATAGCCGCAGTTAGCATATGGCTCCTAGATCGCCTAGCTCTTCGCGTTAATTTGATTTTCGGCAACTAGGGGGGGCATCGGGCGCCGTATAGGAGGGTGTCACGGGTGGAACCGACGGCTCTTCCAATTTTGTGTCACCCTGCGTCACTTCAGACAAGTTAGCCGCAGTTAGCATATGGCAGTTAGCAGTTAGCATATGGCCAAGCCGGTGCGACGGCGCTCTTAAGGATGGCCGTAACAAGGCAATGAACGTGCGTAACATACAACAATAAAGCAGTCGAGTAGGAGGGTGGAATCGCTATCCCTGCGTTCGCCTAGAACGAAGCGTTAACAATTTTGTGGAATTTTAGCATGGCCTGCGTGCCTGTGCACCACTGACTAGTGTCCCAAGTGGAATGGCTGTACCTTTCAGGCTGTACGCTATCGGGTTAACCGTTTAGTCCCAATAGAAAGGGCCTGGGTCCCAACAAGCCGGTGCGACGGCGCTCTTAAGGATGGCGACTCAGTAGCCCAACTTGCGGACTCAGGACTAGTTACCTTGGGCTGTAGACAAGTAGTCGAGTAGGAGGATATGGCCGTAACATACCTTGTTAAAAGCGGTATCTCGCCTACCATATAACTGCTCTTCTAGCCCAGACCCTTGGGTTAATTTGATTAGTTAGCGTGGAATGCTCTTCCACTTCATAGGAGGGGTGTATGAACGAACGAGGGGGGTGTATGCTCTAGCGAGGGGGCATTTAGCTGATAATTAGAGTGCCCGAGATCATCTAGCGGTCATCAGCTCACATCTAGCGGTCATCAGCTCACGTGGAATCCTGCGTTCGCCTACCTGCGTTCGCCTAGCTCTTCTATACTCATCTACGGCTCTAGTTTGATTTTCGGCAAGACATTATCTACGGCTCTAGTAGCCCAGGAGAGCCGATGGCCGGCGCAAGTCAAGGTTACGTGGTGGAAGAGGATACATATCAGCGGGGCGCATTTAGCTGATAATTAGAGTGCCCGAGATCCCGTTTACTAAGGAACGAAATATTGACCCCTGCGTGTTACGTATACTGGACGTACTTGCTACGACTTGCGGAACGTGTATACTCTGCTTCGAACGGATTTGAGGGTTAAATACTGGCGGTGGGTAGATAATATATAAGCCCATGGTAGAACTCGCCTAGCTCTTCTTCGGCAAAGTAAGGTTGGTGGCATTTAGCTGATAATTAGAGTGCCCGAGATCGAATGACATATGGCTTTGATTTTTGATTTGCTAAGAGGAGCATTCGCCGTACAACATAAGTTGCCTACTACACCACTTACCTTGACTAGGGTTGATGCTAAGGACTAGTGCGTTAACAATTTTGTACCTGATAAAGCTAGCCGCGCCATTAAACGTCAGTCTAACGCTCTTCCGTAACAGTCCCAAGCATTTAGCTGATAATTAGAGTGCCCGAGATCGACTCAGCCTGCGTTCGCCTAAAACTTCGATTTGAACTAGGGTCGTTCCCGTCGTTACTATAAGTGTCACACCGACGGAACGAAAACGTCAGGCTGCTATCGTCTAACAAACTTCGGGTGGAGAATGACCAGCTTCTCGTTCCCGTCGTTACTATAACCATACGCACCACTGCGTTAAGTGGAATCGAGGGGATCTAGCCAAGCCGGTGCGACGGCGCTCTTAAGGATGGCGGTCATCATGTAAATAGGAGGCAATTTTAGACATTAATAACTGTACCTGGGCCTGGTAGCCGCATGTAAAAATAACTACTAGGGCACCACTGTCGTGAAAGGCGTTAAAAACTTCCCACAGTACATACGCCGTTTACCTGGCCTAAGTTGTTTAGGATTCGGCAGTGTCACAGTTAGCCAGCTTCAGCTCACAACTGGATTTTGCTCCAAGACACCATCATCATGGTGTATATAAAGCAGTCGAGATACTGGCTTGCCCACTAGGGTAGATAACCTACTAGCGGGGCTATCAATCGGTGGGGTCTAACCAATTTTTTTGTTCTAAGTGTCACAGGCAATATACTGGTCGCATCGGCGTAACGGTGGGTGCTACGGTGGAATTCATCATCGGTGGGCTCAACGTACAACATTTAGGAGTGTGTTTCTCTGTCTAGGCCAGATTGACCTTTGCTAAGAACGTCACTTTGGGCCTACTACCACAGTTAGGAGGGGAGAGCCGATGGCGTCGTATTCCTGCTAAGTCTCGGCCTGGTAGAAAGGTCGTATCCTACGTGGGGGCGTAATTCGCCGCCTGGCCGATGTAGTTCATGGTAGAAAGCGGCGCACGCTATCGGCTGTAAATAACTAGAGAACGCTCAAGGTCTAACGCATTTAGCTGATAATTAGAGTGCCCGAGATCAAACTTCCACTTCACGCTGCCCCATACGCCATACGGCCTCAAACGAAATGAGGATAGGAGGTCATACTGGTGCTAAGGCCCATGACGTACTTTTCTTCTCTCTATATAAAACGTCACCTACTACAAACTGCATATCACCACAGTCTTGCCCGATTTGAGCCTCAACGGGCGCGACAAGTTAGCCGCCAAGCCGGTGCGACGGCGCTCTTAAGGATGGCATACTGGCGCTATCGGGGCATGCCATTACCTACTATCATCATAATAACTTACAACATTCTCTCCCACAGTCCATACGACGTACTCAAACTGGGATGGCGTAAGGCGTAAGATTTGACCATACGTTTGTCGATAAAGCAGGCAATATTGACCCCACAGTTGCTTCGACTAGGGGGCTGTAACATACGGTGTGTTTCTCTGTCTAGGCCAGATTGACCTTTATCAATCCATACGGATTTGACGTCTAAGTTACGTGGTGGAAGAACGTGTGCTTCGCGTCTAAGATTTGATAGAAAGGTCGTATACGTACTCGGTAAAAAGTATATAAGCCCATGACTAGGGACTAGGGACGAAATAGACATTTTTAGGATGCTAAGAGTCAAGTTTGTCGTTCTCTCAATAACTTCGCATCTCCTGCTGTGTGTTTCTCTGTCTAGGCCAGATTGACCTTAAGTCTCCCTACTACCACAGTCAAACTGGTAGAACGTTACGTAACGTCAGATTTGAACTAGGGGAGGATACCATACGGATTTGATTCGCCGTTCATAGGTCCCTGGCCAATAACTAATAACTCATATCACCGTTTACCATACGGTCTAACCGGTGGGAGGAGCAGGAGGTCGTGTCACCGGTGGGGATGTAGCAAGCCGGTGCGACGGCGCTCTTAAGGATGGCCCTTTCAGCGTTAACAATTTTTTCATGGACTAGGGATACTGGAAACTTCCATATCAGCGGGGCGCGGGGCCCTACTACCACAGTGGCCTGGGCCCATATAAAGGCAATTTTAGGACGGTGGGCCGTTTAACGAAATGAGGATACACCACTAATAACTGATTTGAATACTGGTCCTAGACACCACTGTATGAAAACTGGATTTTGCTCCAAGACACCATCATCATCCCTAAACGTCTTGATATATTCGGTGGGCCTACTACCACAGTGCGTTAACAATTTTGTGTCACTACAACAATAAAGCTAGCCGCGAACGTGAGACATT'
p492
aS'TTTGTCGAAGTAAGGTTGGTGCAAACCTGACCCTTTTAAAAGCGGTATCGTCTAACAAACTTCCACCACTTGCTAAGAACGTCAGTCTAACGTGGCCGACAGGAGGTCCGGAGCATTTAGCTGATAATTAGAGTGCCCGAGATCAGGTTTCACGTACTAAAGTGAAAACTTCACGTACTTTTAGGAGCGTTAACGAATTCAACGTCAGCCTGTGGATTTGATAGCCGCAAAGTGACAAACCTCTAAGGATTCTCTCAGTAGCGCCTGCTCAACGAAAGTGAGTGGCCGGGCATAGACTAGGGGCCATTATGCTAAGACGAAATGAGGATAGTGTCACTATATAAGCCCATGCAAACCTTATATAAGCCCATGAACTGGATTTTGCTCCAAGACACCATCATCATTTCGCCGGTTACGTCGGCGCATTCGCCGCGCGATTCAATTTTCATATCAATGTAAATTTAGGAAGGAGCACAGCTTCCAGGCAGACAGGAGGAACGAACTTTGGGACCGTCGATGGCCTACTAGCTCAAGGACTAGTTACCTTGAATCCATATGTAAAACATACGAGTCGAGACATACGTATCAATGCGTTAACGAATTCGACCCTTCGATGGCGGTGGAAATTGACCAACTGGATTTTGCTCCAAGACACCATCATCATTCATCATTGCTACGGGAGAGCTTAAAAGAAACTTCCACCACTTCGCATCCACTTCAGACAAGTTATCAATCGGTGATGTGTATGGGGTTAACGCTGCCAGAGAACCCCTCCATACGCGGGCGCTATACTCATCTACGAGGCCGTTCGCATCTCCTGCTTCCTAGATCCTGCTAAGTCTCGTCTAACCGGTATCGCCTGTGTAGATAACTTGCCCGCCTCAAAACTGGATTTTGCTCCAAGACACCATCATCATCAGGACCGGCCTGGTAAGTTGATGCAATGGCCTGGAACGTCAGATGTAGCCGTTTAATATATTAAGTCTCGTTACGTCCTGATAGCTCTAGAGGTTTCGGGGCATGATTTGACTAAAGACCAACTAGGGACCGACGGTCCGGATAGCCCAGAATGACGTAGAACGATGTAGCAGCTTCGCGGGGCGAATGACAACGAAGCCTGGCCAACGAAGAGTCAAGCCTGGCCGGGGAGCAACTGGATTTTGCTCCAAGACACCATCATCATCCTGATAGCGCCTGGTTACGTCGCGATTGCGTTAAATGCAATCAGCTTCGTGTCACGAATGACTCGTTCCAACGAAGCGAATTCACTTGCGACAGGAGGGGTGGAGAATGACGGAGGAACTGCAGCTTCTTCGGCAGTGGCCGGGGTGGACCATACGATGCAATCGTCGTTCGCGATTCAATTTTATGTAAAGGCGTAACACCACTCGAATTCGGCGTAAGTTGATAAGGCCGTCAAGCCGGTGCGACGGCGCTCTTAAGGATGGCCGGTGATGTGTATGGTCGTATAGACATTTGCTTCGGTCGTATACATACGTATCAATAACGAAGACTATAAGTACCTGAATAACTACCGACGGAACGAATTTGATTATGTAAAACATTCGCCTAGCTCTTCGACTAGTCCTACTACCACAGTTAAGTTGGCCTGTGATGCAATTCGCATCGAACGTGTAGAAAGCGTCTAACGGCGCATAGAAAGAATCCATCAAGCCGGTGCGACGGCGCTCTTAAGGATGGCCAGGCAGAGGAGCACGATGGCTTTGTCGCGGTATCAGGCAATTCCTGCTCTTGCCCCGGTATCTAGATAAAACGAAGCGGTGGGTACCTTGGACAAGTCCTGCGTTCGCATCCCCATTCATGGGTGGAATAGTCGAGGTCCGGAATACTGGCGCGATTCGCGATTTTAAAAGGCCTCAACCTTTCAGGCCTGGGCCTGTGCAATTTTGGAGAGCGTAGAACACCGTCGAACTGGATTTTGCTCCAAGACACCATCATCATGAGACCAACTATAATGCTACGGTGTCACTTTAGGACCTGGCCGTATGAACCCTAAAGACCCTTCGAATTCCAGGACCACTAGGGAGGTTTCTAGCCCATAGGAGGGGGGCATGGTAAGACATTGGCTGTAACTTGCGGTTGATAGATTTGAGGGGAGCAGTCAAGAGTCGAGCGTCTTGTACAACATTCGCCGTGCTAAGAGGCAATTAGATAAGTACCTGAGGCAATAACTGGATTTTGCTCCAAGACACCATCATCATGAACGTGGTACCTGTAAGTTGGAACGTGTATATAAGCCCATGATAAAGCCACTTCAGACAAGTGTTACGTAATAACTCCATACGGCGCCTGCTAAAAGCGCTATCTGAATTTGTCGGAGACCAACCGTCGGAGACCACCACAGTGGTGGAAATTGACCTCCTAGATAGCCGCGCCATTAACGTACTACGAAATGAGGATAACTATAATTTAGGATGCTAAGGCATTTAGCTGATAATTAGAGTGCCCGAGATCAACGTCATCGTTCCCGTCGTTCATATCAGTCGTATGGCGTAAAGGAGCACGTCTTGATATATTTCATCATCGGTGGGCCTACTACTAAAAGGCGCCTGACCGTCGTTCTCTCCGCTGGGCGCCAAACTGGCTCTAGGTTGATACCTTTCACGGCGCAATACTGGCTTGCCCGTATGAACCCTAAAGTAGAACTTCATGGTAGAAAGGCGGGGCCGTCGTTCTAAAAGGTCTAACAACTGGATTTTGCTCCAAGACACCATCATCATAAACTTCTAGCCGCTCGTTCCCCGTTTACAAACTGGGAGGTCGTTACGTGATGTAGCCTTTCAGCCTCAAGGAGAGCCGATGGCGTATGAATATACTCATCTACGGGAGGTCAAGTCCTGCTTTCATGGCACTTCAGGGTTAACCCTAAAATGCAATTGCTACGGACCCTTTCATCATAAGTCTCAGTCAAGTTAAAAGTTCTCTCTACAACAGCCATTAGGCATAGCACCACTAACTGGATTTTGCTCCAAGACACCATCATCATGCGTTAACAATTTTGTGTCACATAAAGCTAGCCGCGACCCTTGTTACGTGGTGGAAATTGACCTTAAAAGCGGTATCGCCTGTGCGTCTTGATATATTTCCTAGAACGAAATGAGGATACATATCAGACTCAGCGAGGGGATCTAGCAGGTTTCGTTGATAGCGCCTGAAGTAAGGTTGGTGCGCTATCTTCTCTCCAAACTGGGAGGTCCAAGCCGGTGCGACGGCGCTCTTAAGGATGGCTTCATGGTTTGATTTTTGTCGGGCTGTACCCTAAACTAAGGAACCGTCGTTCATGGGTCCGGAGGTCATCAAGTCTCGTCCCAAGCGGGGCTCTCGATGTAGCGTAACAGATGTAGGAATGACACAGGAGGGGTGGAACCGACGCTCAACGCGTCTTGATATATTCGTCTAATTCGGCATTTAGGAGTGTGTTTCTCTGTCTAGGCCAGATTGACCTTTGCTAAGGTCTAACTGCTTCGTCCTAGACACTTCACTTTGGGGAACGAAATGTAAAGTGGCCGCAGCTTCTAGGAGGATATGGCCAGGACCCGCCAGAGAACAGTTAGCGTGGAATCCTGCGTAAAGTGAACATACGTATCAATGCTCAAGGACAAGTAGTCGAGAGACATTAAACTTCCACCACTAACTGGATTTTGCTCCAAGACACCATCATCATGCGTTAATTTGATTTTCGGCACCTTTCACGCTGCCAGAGAACTCGCATCCGAATTCCAAACCTTCGCCTATTTGATTTTCGGCAGCTCAAGCGTCTCTTCGCTTTGGGCTCAACGGCTCTTCGCTCTTCTTTGATTCGCGATTTCCTGCTAAGTCTCCGGGCGCGTATGAACCCTAAAGCTCTTCCAATTTTGTGTCACCAAGCCGGTGCGACGGCGCTCTTAAGGATGGCGAATGACGTCTAACTCGCCTACGTCTTGGACAAGTGGGGCATGATGTAGTACCTTGAACGAAGTTCGGCAACATACGTCGCCTACTAAGGACCTGAGGAGCAAGTAAGGGCTGTAATGTAAAGACCCTTCAGCTTCGACTAGTGACCCTTTCCTAGACACTTCAATATATTAACGTCAAACGTCACAGCTTCGCATTTAGCTGATAATTAGAGTGCCCGAGATCATGTAAAACCGACGTGCTAAGTCCTAGAGTGGAATATATATTTTAAAAGCTAAAAGGAATGACTTAAAAGGGTGTATCGCTATCGTTGGTGTACAAGTTTACAAACCTTCCTGCTAGCTCACCGGTATCGGAGGTCGAGACCACGGTATCGTATGAATAGGAGGCACTTCAGCTCTTCGGGTGGAACATACGCAAGCCGGTGCGACGGCGCTCTTAAGGATGGCTATCAATTCGCATCTCGCCTAGACAAGTAGTCGAGCCTTTCAGCCTGTGATGCAATCAAACTGGCCTGTGATGCAATTCGCATCAAAGTGAGTGGCCGTATCAATACGACAGGAGACATACGTATCAATAACGAAGTTTGTCGTTCTCTCAACGAAGGACAAGTAGTCGAGATACTGGGTGGAATCCTGCGTTCCTGCTGCATTTAGCTGATAATTAGAGTGCCCGAGATCAAGTCTCTTCATGGTAGGAGGCGGTGGGCCCTAAACACTTCACGCGATTCGCGATTCGTCTAACGCGATTCAATTTTATGTAAAGTCCGGACATCATAAAGCCAGCTTCGTGTCACCCTTTCATGCTTCGCGAATTCTTTAGGATCCTAGACGTCTTGCCTGCGTGGCTGTATTTAGGAGAACGAAGCATTTAGCTGATAATTAGAGTGCCCGAGATCGACTAGTGTGGAATCGCTATCTCGCCTAGATTTGAATATATTTGCTAAGGCCTGTGAGACATTGTATGAAGTGGAATGAATGACTAGCCGCGAAGAGGCCGTAGTCGAGCCTGCGTTATCAATGTGTCACATGCAATGGGTTAACGTCTTGACTAGGGAGTCGAGACTTGCGCCTGCGTAAACTTCAACTGGATTTTGCTCCAAGACACCATCATCATCACCACTGCTCTAGTAGCCCACCTTTCAGTATGAACCCTAAATATACTCGCGTTAACAATTTTTCGCATCCACTTCAGACAAGTCGGTGATAATAAACAGTGTGTATGAATCCATTCCTAGATCCTGCTAAGTCTCCACCACTATCTACGGCTCTAGCCTTTCAGTATGAACCCTAAAATCTACGGCGTTAACAATTTTAACTGGATTTTGCTCCAAGACACCATCATCATGTGTCACGGGTTAATATACTCCGTCTTGTTTGATTTTCGGCATAGCCCAGTCTAACAAACTTCGATGTAGCGTCTTGATATATTCAGGCAGCGGTGACTGGGGCATAGTAGGAGGCCCTAAATTTAGGACGGTATCAACGTCAACTTGCGCCATACGGCTCTTCATATATTTAGGAGGTACCTTGAGACATTGTGTGTTTCTCTGTCTAGGCCAGATTGACCTTTGCTTCGCGCTATCGGCTGTATCCTAGACCACAGTAATAACTGACCCTTGACCCTTTTAAAAGTGCTAAGCGCTATCGGCTGTATAGCCGCGTTGAGTTTCAGACATTGCGTTAACGAATTCAACGTCAAACGAAGCGAATTCTTAAAAGGTATGAACCTACTACACTTCAGGAGGTCGATGTAGCGTCTAAGTGTGTTTCTCTGTCTAGGCCAGATTGACCTTTTTGTCGTTCTCTCCAAACTGGACAAGTAGTCGAGCCTTTCACGGTATCGCCTGTGATGCAATGTCTAACAAACTTCCACCACTTGCTTCGCGTCTAA'
p493
aS'ACATACGCTCAACGCTAAGGAAAGTAAGGACAAGTAGTCGAGAGACATTTACAACAATAAAGCTAGCCGCCACCACTGCGTTAACAATTTTCACTTCAGACAAGTAGTCGAGAACTGGATTTTGCTCCAAGACACCATCATCATTTTAGGACCCTAAATCCTAGAGTGTCACAGACATTAAACTTCGACCCTTGGGGCATCCGTTTATGCTTCGATATATTCACTTCAGTTGGTGAACGTCACTTTGGGTATCAATGCGGCTCAACGGCTCAAGGTCTAACAAACTTCTCCTAGATCCTAGACACTTCAGCGGGGCCGGGCGCCGCTGCCGTCTAACTGCTTCGCGTCTAAATATATTCGTCTTGATATATTCAAGCCGGTGCGACGGCGCTCTTAAGGATGGCTCCTAGATCCTAGACGTCTTGTTTGTCGTATATAAAACGTCAAGAGAACGCGGGGCCATATCAGACAAGTTCGTTCCATATATTCACCACTGGAGAGCAGAGAACCTAAGGATTAGAACGTCACGCTGCCCGATGGCCGGCGCACGTCTTGCGTCGTTACTATAAGAGGATACCGTTTATACAACATGCTAAGGCCCATGTTCGCCGCCCTAAACACTTCAGACAAGTCAAGCCGGTGCGACGGCGCTCTTAAGGATGGCAGTCGAGCCTTTCAGTATGAACCTGGCCTTCATGGTTTAGGAATAAAGCGATGTAGACGAAATGTACCTGGTATGAACCCTAAAAGACATTGGGGCATCGGGCGCGTTCCACCACTGCCTCAATGCTTCGCGTCTAACCTTTCATAAGTTGTAGATAAAAGTCTCTAGCCGCGAATGACGGAGGTCGGCCTGGAGGCAATAGTCGAGTTTAGGATGCTAAGAACTGGATTTTGCTCCAAGACACCATCATCATAACGTCAGACAAGTGACAAGTGAACGTGCAAACTGCAAACTGCAGCTTCCTTTGGGTCCTGCTTGCTACGCCTTTCAGAACGTGTTTGTCGCAATTTTCTTGCCCGCGTTAAGTTGGGTAAGCAATTTTTGCTACGGCGTTAATTCTCTCTAGCCGCAGTCGAGGGAGAGCCATATCAGCTCAAGATGTAAAACGTACTTTCTCTCACGAAATATATATTCACTTCAGTCTAACGCATTTAGCTGATAATTAGAGTGCCCGAGATCAAACTTCAACGTCACGTCTTGGAGGATAGGGGAGCGGCGTAAACATACGCGGTATCGAGGATACGATGGCTTTGTCGATAAAGCCAAACTGTGCTTCGTAGATAAGTGTCACTCCTGGCATCCAGGACCTGCTAAGAGACATTGGAGGTCCGTCTTGCGTCTAACGGCGCACTAAAAGTTAAAAGTATCAATTAGCCGCCAGGACCCATATCAGTATGAATGCTAAGCACCACTGCATTTAGCTGATAATTAGAGTGCCCGAGATCGCGTTAACAATTTTCCTTTCAGCGGGGCCCGTTTAATAAAGCTCGCATCTCCTGCTGAGACCATAGAAAGGTCGTATCCCTAAATTCATGGGCCATTATTTAGGAGGGGAGCCCGTGATTTGAACTAGGGAGGAGCACCTTTCAGTATGAAGGCGTAAGCGCCTGACCGTCGAAGTCTCCCGTTTATACAACATACAACAATAAAGCTAGCCGCGTGTCACCAAGCCGGTGCGACGGCGCTCTTAAGGATGGCCCTTTCAGTATGAATACAACAATAAAGCTAGAAAGGCGGGGCGATGTAGGATGTAGGTTGATAACGTACTCCGTTTATAGCCGCGTAGAACGTACCTGCCATACGCGGTGATCCCAAAGTCTCAATAACTTAAGTTGCGTCTAAATAAAGCTACAACATTCTCTCAGGTTTCACGAAATGCCTGTGCATATCAGTCGTATCCTGATACCGTTTACCCTAAAGTCTAACAACTGGATTTTGCTCCAAGACACCATCATCATAAACTTCTCCTAGAGCGGGGCAGGCCGTTTTGTCGGAGGATAATGCAATTATCAATGTCCGGACAAACTGGGCCTGGTACAACATTTGTCGATTGACCCCACAGTGATGTAGTATTACGAAATCCTACTATCATCATGTGTCACCCGTTTAAGGCAATGTATGAAACAGGAGTCGCATCCTCAACGACGAAATTTCTCTCGGAGGTCCATATCACACTTCAAGTCGAGAACTGGATTTTGCTCCAAGACACCATCATCATTCGTTCCACGAAATGAGGATATTCATGGGGCATAGTAGCCGCCTAAGGAAAAGTGAGTGGCCGCCCTAAACATATCAGCGGGGCACGAAATATACTGGCGGTGGGGACAGCGGGGCTTCATGGGAGGATACATATCAGAGGATACGTCTTGATATATTCAAACCTAAGTAAGGTTGGTGCAGGCAGCAGGACCGGGGAGCGTGTCACCGTCGTTACTATAACAAGCCGGTGCGACGGCGCTCTTAAGGATGGCGTACCTGGCGTTAACAATTTTCCTGATAGTGTATGAATCCATGAATGACCGCGATTCGAATTCTCCTAGATTCATGGACGAAATGCGGGGCCAAACTGGGAGGTCCCGTTTAGGGGAGGACCTACAACAGGTGGAATTCTCTCCCGTTTACCTGGCCGGAGGTCCACTTCAACATACGAACGAAGCAGCTTCCGTCTAACGGTGATAGGCCGTATATATTCACCACTTAAGTTGCAAGCCGGTGCGACGGCGCTCTTAAGGATGGCTAGATAACCCTAAACGTCTTGCGGTGATAGACATTTGCTTCGATGTAAACAGCTTCATGTAAAGACAAGTGCCCATGTTCGCCGTACAACAAGTCAAGGTTACGTATAAAGCAATCCGTATGTAGCCGCACTATAAGTTACGTATAAAGCGCGGGGCTATATAAAGTCGAGAAGTCTCGAATGACACATACGTAGCCGCTAGCCGCGTGTATGCCTTTCAGTATGAATGCTACGGCATTTAGCTGATAATTAGAGTGCCCGAGATCGGAGAGCCGATGGCCGGCGCAAATCCATCAGGCAGGGCATAGTATCAATTCGCATCTCCTGCTACGAAATGAGGATACATATCATAGCCGCTCGTTCCCGTCGTTACGAAATGAGGATACATATCATCGCCTAGCTCTTCTTTGATTTTCGGCAGAATGACCAGCTTCTTCATGGAGACATTTGCTTCGTTTAGGATGCTAAGAACGTCAGCATTTAGCTGATAATTAGAGTGCCCGAGATCGTCTAACTTCTCTCGATGTAGCGTCTAACCATACGGGAGGTCATGTAAACGGTATCTTTGATTTTCGGCACGAATTCCCTGCGTGCGGGGCGTATCAGGCAGGTGGAATGACCCTTTTAAAAGGCTCTTCGCCTGTGATGCAATCAAACTGGATTTGAACTAGGGAAGTCTCCAAACTGGGAGGTCCAAGCCGGTGCGACGGCGCTCTTAAGGATGGCTTCATGGGAATGACTCCTGCTTCGTTCCGAGACCATTCTCTCAACGAAGTCCTGCTTCGCCTACGGTATCCGTCTTGTAGGAGGGGCATAGCAGCCCTGATAGGCTGTAATATATTTCCTAGACCTGCGTAAGTCTCGATGTAGTTTGTCGCTAAAAGGGGTGGATCGCATCCAGCTTCATGTAAACAAGCCGGTGCGACGGCGCTCTTAAGGATGGCACATACGACATACGTATCAATACCGACGTGCTTCGCGTCTAACGCTATCTAGGAGGGTGGAATCACTTCATAGCCGCCGCTATCAGGCCGTCATATGGATACGGTGATGTGTATGATAAAGCGACAAGTAGTCGAGGGCTGTAGGCTGTATAGGAGGAGACATTGAACGAAGACTAGTATGTAAATATCAATTCGCATCAACTGGATTTTGCTCCAAGACACCATCATCATTCCTGCTCAGCTTCCAGCTTCTACCTTGACTATAAACTAGGGGTGGAATCGAATTCCGCTATCCCTTTCAATGCAATTACAACAAATCCATGACCCGCCGCCAGGCAGCCCTAAAGCCTGTGGTATGAATCGCATCCGCGATTCCTGCGTACCGTCGCGTCGTTGGGTTAAGATGTAGGAATGACAAGTCTCAACTGGATTTTGCTCCAAGACACCATCATCATGATGTAGCACCACTAAGTCTCTATACTCTTCTCTCGCGCCTGTCGCCTATATCAATTATCAATCCCTAAAGTCGTATGTATGAAGGCATAGTACAAGTTTATAGCCGCCGCGATTTAGAAAGCGTCTTGTTAAAAGACATACGGCTCTTCAATAACTTTTGTCGATCTACGTTTGTCGAAACTTCTCGTTCCCAAGCCGGTGCGACGGCGCTCTTAAGGATGGCCGTCGTTACTATAACGTCTAAGCTCTAGTAGCCCACCACAGTTTTGATTTTCGGCAGACCCTTATATATTTCCTAGAAACGAAGGGGGCATCGGGCGCAGGCCTGATACGCTGCCGCCTGTGATGCAATCACTTCACGATGGCCGGCGCAGACCCTTCGGTGGGCCTACTAACTTGCGAGACATTTGCTTCGGTACCTGCAAGCCGGTGCGACGGCGCTCTTAAGGATGGCTAAGTTGTCGCATCGTGTCACATACTGGAGGTTTCATACTGGTTAAAAGATGTAAAGGAGAGCGACAAGTGGTGTATCGGTATCAGAGAACTCCTATAAAGCTTAAAAGCCTTTCAGGCGTAATGCTACGACATACGTCGCATCTTCATGGGTTGATACAAACTGCAATTTTTCCTGCTGCGTTAACAAGCCGGTGCGACGGCGCTCTTAAGGATGGCCAATTTTCGGCGCAGCGTTAAGGAGGTCCCATACGGGAGGTCTCCTGCTCGCGATTTAGATAAACGTACTGCGGGGCGACCCTTTAGCCGCAATGTTAAAAGGAACGTGCCGTTTAAACGAAGTAAGTTGCGAATTCTCGTTCCCAAACTGGATTTGAGTACCTGCACCACTGAATGACATGTAAACAAGCCGGTGCGACGGCGCTCTTAAGGATGGCACATACGGTCTAACAAACTTCTAAGTTGTTTGTCGTTCTCTCCGTCGTTACTATAAGTACCTGCGCGATTGGCCTGGAGGCAATCGGTATCAAACTCTAACGCCTGTGATGCAATCCTGGCCCGAATTCAGTTAGCCGTCGTTACTATAAGTACCTGCGTCTAATAGATAATGCTACGAACGTCATATCAATTCGCATCCAAGCCGGTGCGACGGCGCTCTTAAGGATGGCTCCTGCTTTTAGGATGCTAAGGGAGAGCAGACATTTGCTTCGTAAGTTGGATGTAGTCGTTCCATATGGCGCCCATGTTCGCCGAACGAAGTGCTATAGGACGCGATTCATATCATATATAACGTAACAAACGAAGAAGTCTCTAGATAAAATAACTTTCATGGCGATGGCCGATGGCGTGTCACAAGTCTCGTGTGTTTCTCTGTCTAGGCCAGATTGACCTTGATGTAGTGCTACGGGAGAGCCGGCGCACCTACTACCACAGTTGCTACGGCCTGTGATGCAATGTCCCAAACGAAATGAGGATACGAATTCCTTTGTCAAGGAATGACAGCTCACAGTCGAGGACTCAGCAGCTTCCGGTATCGGAGAGCGTCCGGACGGTGGGCAAACCTTATCAATTAGATAAGAATGACGTGTGTTTCTCTGTCTAGGCCAGATTGACCTTCAGCTTCATGTAAAACATACGAAAGTGAGTGGCCGACAGGAGCGATGGCCGGCGCAGAATGACCGAGGGGATCTAGCGGTCATCCAGCTTCATGTAAA'
p494
aS'CCACAGTAATCCATCAGGCAGGGCATAGCGGTGGGCCTACTACCACAGTAGACATTTGCTTCGCGTCTAAGAGGATACATATCAGCGGGGCCCTGCGTTCGCCTAGCTCTTCCAAGCCGGTGCGACGGCGCTCTTAAGGATGGCTTTGATTACGAAATGTGGAATCCGTTTAGCGCCTGACGAAATTTTGTCGGGAGGTCGTGTCACAATAACTTTTGATTATACTGGTAGCCGCTAGCCGCGTGTATGAATAACTCATCTTCATGGCGGTGATGCCATTAAGGAGCACGGCGCATTCGGCAATACTGGCAATTTTTTCATGGTAGAAAGGAACGTGACCGTCGGAGACCATAGGAGGGAGGATACATATCAGCATTTAGCTGATAATTAGAGTGCCCGAGATCGCGGGGCAGGTTTCGGCTGTACTAAAAGCGTCTAAAGGCAATGTCGTATAGACATTGCGTTAACGGTGGGCCTGATACGATGGCGTAGAACCATATCAAGGCCGTAGTTAGCAACGACAGGAGCCTGATAGCGGGGCCCGTTTAGGAGAGCAGGCCGTCGGTGATCACCACTTGCTTCGCGTCTAAGGCCTGGTTTGTCGTTCTCTCCGCTATCGTTGATAGCGCCTGAACTGGATTTTGCTCCAAGACACCATCATCATACCGTCGCGCGATTCGAATTCCAAACTGTTCGCCGCCTGGCCTTTGTCGGTCTAACAAACTTCGTGTATGTAGATAATGCTACGTACAACACAGGACCGGGGAGCGTTCGTTGATATAGCCGCATAAAGCTAGCCGCTAAGTTGAATCCATCAGGCAGAACGTCATTCTCTCCAAACTGGCCCATGGGAGGTCTTCATGGAACGAAGGAGACCACTAAAAGGTGTGTTTCTCTGTCTAGGCCAGATTGACCTTTCGTTCCTACAACAATGCAATCAGGACCTGCTTCGTATATAAGGAGGTCACGTACTTGCTAAGGGCATAGCCACAGTGTACCTGACGAAATAGTCAAGATAAAGCGCGCCTGCGTAAATGGCACCGTCGGAGGATAGTTACGTGAGGATAGGGGAGCCCTACTATAGCCGCGATGTAGGGCGTAATTCATGGTGCTTCGAGACATTGGGGAGCGTCCGGACCGTTTACGTCGTTAACTGGATTTTGCTCCAAGACACCATCATCATACTATAATTTAGGAACAGGAGCCTGATAATAAAGCAGACATTGCCATTACAAACTGAAGTCTCCGCTATCGATTTGACAGGACCCATATCAACCGACGACGAAATGAGACCAGATTTATACGCTAAAAGATAAAGCGGGTGGAGCGGGGCGCTCTTCCCATACGGGCTGTACAAACTGTTCTCTCAGGAGCAGTTGATATACAACAAGGCCGTCGAATTCTTCGGCAGTACCTGGTGTGTTTCTCTGTCTAGGCCAGATTGACCTTTAAGTTGTAGATAACGCGATTCGGTGATGTGTATGAGGTTTCGTAGAACGTTACGTTTCTCTCTAGGAGGGTGGAATTCGCCTACCGTTTATACAACATACAACAATACTGGCGTAGCGGGGCCCGTTTAATAAAGCGTGGAATCCTGCGTCCTGCGTCGTCTAATTTGTCGAGTCAAGACAGGAGGTCCGGAAATCCATATGCAATAACGAAGTGCTACGAACTGGATTTTGCTCCAAGACACCATCATCATGGAGAGCAAAGTGAGCCTGTGCAGGCAGGGAGGTCGTGGCCGGTTACGTTCGCATCTGCTTCGTCGCCTAAGCTCACTAGGAGGTAGCCGCATAAAGCCATATCACCACAGTCCGAACTAGGGGAGGATATAGCCGCGAACGAAGGCTGTAGGTGTATACTAGGGAGACATTTCCTGCTGGAGGTCAAAGTGATTCATGGTAGCCGCCGGTATCGTGGCCGTGCTAAGGCATTTAGCTGATAATTAGAGTGCCCGAGATCAACGTCACGGTATCTTAAAAGGACCCTTGGCGTAACAAACCTTTCATGGGCCTCAACGAATTCGACCCTTCGTCGTTCGCTATCGACTAGTCCGTTTAACGAAATAGTTAGCCGTAGTCCCAAACTTGCGTACAACAGTTACGTCGAATTCACTATAAAATAACTCGCGATTTTTAGGATATATAACGAATTCACGTACTCGTCTAAGACCCTTGCCTGTGATAAAGCGTGTGTTTCTCTGTCTAGGCCAGATTGACCTTTAGCCGCCAATTTTGTGTCACTTTGTCGAACGAAGCGCGATTGCCCATGATGCAATAACGAAGCCATACGAACGAAGCGCGATTGGTGGAAGCTCTAGTAGCCCAGAGGATCTAGCATCTACGATTGACCTCATCATATGCAATGATTTGAACTAGGGGCCTGTGTTCGCCGCCTGGCCATGCAATTTCTCTCCAAACTGGCGTTAACCTTTCAGTATGAAGTGTGTTTCTCTGTCTAGGCCAGATTGACCTTCCCTAAAAAACTTCCACCACTGGAGGTCCGGTATCGCCTGTGGGCCTGGTTAAAAGCGGTATCAGTTAGCCGGTATCGCCTGTGCTTGCCCGGGTTAATATACTCGGTCATCCGTAAATGGCAGCTCACGCGGGGCTACCTTGGCCTCAATCGTTCCTTAAAAGATATGGCCTTGCCCGACCCTTAGGCAATGTCGTATTTAAAAGTTCATGGTTAAAAGGTCTAACCGTCTTGCAAGCCGGTGCGACGGCGCTCTTAAGGATGGCATATATTCGGCGCAGACCCTTAGACATTTAGCCGCTAGAAAGGAACGTGATTGACCTCATCATCGTAACATTTGATTTTCGGCAACGAAATGAGGATACATATCAGGTGTATCCATATAACTATACTGGTACAACAACGAAATGAGGATAGGTCATCGCTCTTCGTCCCAATATCAATGGTGGAAGAATGACCAAACTGGGCATAGTGCTTCGCAAACCTCGATGGCTCCTAGAGCATTTAGCTGATAATTAGAGTGCCCGAGATCCACTTCAGACAAGTAGTCGAGCGTCTAATTTGTCGTTCTCTCCAGCTTCATGTAAAACATACGGACTCAGCGAGGGGATCTAGCCATATCAGCGGGGCCCGTTTACGGTGGGCCTACTACCACAGTGCGTTAACAATTTTGTGTCACAGCTCACGGTGTATCAAACCTCACCACTGCGTTAACAATTTTCCTGCGTTCGCCTAGCTCTTCAACTGGATTTTGCTCCAAGACACCATCATCATTTTGATTGTGTCACGTGGAATGTGTCACCGCTATCAAACTTCAAAGTGAGAGACCAGGTCATCTTTAGGAAACGTCACACCACTAATAACTAACGGATTTGAAAACTTCGTCTAACAAACTTCATCTAGCCTAAAAGCAGGACCGTCTAACGGCTGTATAGGAGGTAGGAGGGGGGCATCGGGCGCGCATTTAGCTGATAATTAGAGTGCCCGAGATCCGCTGCCTAGGAGGGGCTGTAGTGGAATGCCTGTGAACGTCAGGGGAGCCTAAAAGCGAGGGGCACCACTAATAACTGTCTAACACTAGGGATCAGTCCCAAAACGTCACCATACGGATTTGAGACTCAGGACCCTTTTAAAAGTGCTAAGATGCAATAACGAAGCGCTATCGTGGAATCCTGCGTCAAGCCGGTGCGACGGCGCTCTTAAGGATGGCTCGCCTACAATTTTGTGTCACCGCGATTTAGCCGCTTTAGGACGGTATCCGTAACAGTCCCAAACTAGGGTTTAGGATGCTAAGGACTCAGCGAGGCTCAGCGAGGGGATCTAGCTTCGGCATTTAGGATGCTAAGATATGGCGCCTGTGATGCAATGGCATAGCGAATTCATACTGGGCGTTAAGCTCTTCTTTGATTGCATTTAGCTGATAATTAGAGTGCCCGAGATCTTCGGCAGCTCAAGCACCACTCGGTGGGTCGCCTACAGGCAGAACGAAGAGGCCGTAGTTAGCAACGTCACAATTTTTTTGATTGGTCATCGGCTGCTATCAGCTCACCCACAGTGCGTTAAGTCTAACGAGACCACCTGATACGCGATTCGGTATCCCTGCGTCCTACTAGGCTGTAAGAGAACATACTGGCAAGCCGGTGCGACGGCGCTCTTAAGGATGGCCGGTGGGCGCTATCCGCTATCCCACAGTTGCTAAGTTAAAAGCGAATTCACAGGAGACCGTCGAAACTTCAACGTCACCTACTAGGTGTATGATTTATACGAGACATTTGCTAAGTGCTAAGCACCACTACCGTCGGTGGCCGCAAACCTTTCGGCATTTAGGAAATAACTCAATTTTTTCGGCACCTACTAGTGTGTTTCTCTGTCTAGGCCAGATTGACCTTCCACAGTAATAACTGCGTTAACCATACGGATTTGATTTGATTAAAGTGAGTGGCCGGCGCCTGGCGTTAACAATTTTTTTAGGATGCTTCGCGTCTAACCTACGTGGGTTTGTCGGATTTGAACTAGGGGTGTCACAGGTTTCGTTGATAACAGGAGTCGCCTAGCTCTTCACTAGGGAAACTTCCACCACTCCATACGCAAGCCGGTGCGACGGCGCTCTTAAGGATGGCGATTTGACAATTTTGTCTAACCAGGACCGGTGTATCCTGCGTGTCCGGAGTTGATAGTCCGGACGCTATCATACTGGCCATACGTTCTCTCCCGAACTAGGGAATAACTCGGTGGGGTCTAACACAGGAGGCGCCTGGTCCGGAGTGGAATGACCCTTAACGTCAAACGTCAGTGTCACGGCTGTAGCATTTAGCTGATAATTAGAGTGCCCGAGATCTAGGAGGGTCTAACTGCTAAGGTCTAACGTGTATGTAGGAGGAGGTTTCGAGACCAGTGGCCGAAACTTCTCGCCTACCACAGTCAAACCTATCATAGGAGGCCTACTAGCTCTTCGTGTCACAAAGTGACTAAAAGCGGTGATGGCTGTAAATCCATGCTCTTCTTTAGGAAAACTTCCTTTGGGGTGTGTTTCTCTGTCTAGGCCAGATTGACCTTCTCAACGTTTGATTTTCGGCATTTGATTGTGTCACCGCTATCGTGTATGCTAAAAGCAAACCTGGGTGGAATACTGGCGGTGGGGTGGAATAGGTTCCGGACCTGCGTTCGCCTAGTGTCACACCGACGGAACGAAGAGACCAAATCCATCAGGCAGCAATTTTTTCGGCAAGTTAGCGCTCTTCCTAAGGAAAGTAAGCAAGCCGGTGCGACGGCGCTCTTAAGGATGGCGTTGGTGCCTGCGTTCGCCTAATATGGCCACCACTGCGTTAAGGCATAGGCGCCTGACCGTCGGACTAGTGCGTTAACAATTTTGCTCTTCGTGGCAGTGATTTGATTCCTGCGTCACCACTTACCTTGACCGTCGGTTGATATAGCCGCCGGTGATAAACTTCCGTAACAAACGTCAGTGGAATTTTAGGAGCATTTAGCTGATAATTAGAGTGCCCGAGATCTGCTAAGTTTAGGATGCTAAGGTCCCAACCTGATAAGGCCGTCAAACCTGTTGATAGCGCCTGGGGTTAATAGGAGGGTGGAATTTCGGCAGGAGGAACTGATACTGGACTTGCGGGCTGTATATACTCAGGTTTCAGGTTTCAAAGTGAAGCTCACGGGGAGCGACTCAGGCGTTAAACTAGGGAACGTCAAACTGGATTTTGCTCCAAGACACCATCATCATGTCTAACAAACTTCCACCACTCGAGGGGATCTAGCGGTCATCGTGGCCGACAGGAGGTCCGGAATCTACGGCTCTAGTAGCCCACGGTGGGCCTACTA'
p495
aS'GATTTGATACCTTGGGGTTAATATACTCGTCCCAAGACTCAGCGAGGGGCCTGGCCGGCCTGGAGGCAATAGACATTTGCTTCGCGTCTAAAACGAAGCGCGATTCGAATTCCAAGCCGGTGCGACGGCGCTCTTAAGGATGGCGACCCTTCCTGATAATGCAATTTTGTCGTGCTACGGAACGTGGAACGTGGAACGTGTTCGCCGATCTAGCGACAAGTCGTAACAATCTACGTTCATGGGACTAGTACTAGGGCTAAATACTGGGAACGAATCGTTCCCGTCGTTATATGGCAGTCGAGACGAAATGCCCATGATACTGGCGGTGGGAGGCAATGGAGAGCCGATGGCGCCTGTGAGGCCGTCGGTGATGCATTTAGCTGATAATTAGAGTGCCCGAGATCGTGTATGATCTAGCCGGTATCCGGCGCATAGGAGGGGCCTGGCCTACTATCGCATCTATATAAGAGGATAATATATTAGTTAGCACTATAAGCCTGTGACCGACGCGGTGGGAGGTGGTGGAAGGGTGGAATGCAATAACGAAGTAGCCGCTCCTAGACACTTCAACGTACTTCCTGCTAAGTCTCCCTGGCCGTGGAATCCTGCGTTTAAAAGGGTCATCAGCTCACGTGTGTTTCTCTGTCTAGGCCAGATTGACCTTGGTGTATGGTGTATGACCCTTTCGCCTAGCCCATGTTCGCCGGATGTAGGTCGTATGGCGTAAGACAAGTCAGGCAGGGCATAGCGCGATTATAAAGCTAGCCGCATATCTTGCCCTACAACACGAATTCGGGTGGAAATCCATAGTCGAGGGGGCATTAGAAAGGAATGACCAGCTTCTATATAAGCTCTTCTTTGATTAGCTCACTTTAGGATGCTAAGGTGTGTTTCTCTGTCTAGGCCAGATTGACCTTAACGTCACAGGCAGGGTCATCTTCGGCATGCTTCGACGTACTATGTAAAAATAACTACTAGGGCGGGCGCGCGGGGCGTGTATGACCGACGTAAGTTGCCGTTTAGCCTCAACCACATACTAAGACATTCGGTATCGTACCTGGAACGAACGTCTTGCATATCACGCTGCCTATCAATCCACAGTACATACGGGCTGTAAGACATTGGGGCATCGAGGGGAATCCATGTCTAACGCATTTAGCTGATAATTAGAGTGCCCGAGATCAAACTTCCGGTATCGACTCAGCGGGCGCCAAACTGCGCTATCTATCAATGAGGATAACATACGAGAGAACAGCTCACCCCTAAAGACTAGTTAGCCCATTAAAAGTGCTTCGGTATGTTTCACGTCTAAGGAGGTCGCTCTAGTACCTTGCACTTCAGGTCATCGCTCAAGAGGCAATACGAAATTCGCATCTAGATAATTCTCTCCGCTGCCGGGGAGCTTAAAAGCACCACTGCATTTAGCTGATAATTAGAGTGCCCGAGATCGCGTTAACAATTTTCAGGACCAGAGAACGCTCAAGTAAGTTGTCCTGCTAAGTCTCGGCCTGGCTTTGGGCTCAACGTCCTAGAGGGTTAATATACTCCAAACTGTTTGTCGTTTGTTTGTCGTTCTCTCATCTACGCGTCTTGATATATTCTAAGGATTCGCCGCCTGGCCGATGTAGACTATAAGTACCTGCTTTGGGGACAAGTAGTCGAGGTGTCACCAAGCCGGTGCGACGGCGCTCTTAAGGATGGCAGTTAGCCGTAACACACTTCACTCAACGGGAGGTCCGTCGTTATACTGGCAGCTTCGCCCATGAAGTAAGCCTTTCACCCTAAAGCTCTAGTTCATGGCGTCTAAGGAGGTCGCCACCCTAAATGCTTCGGACCCTTACTTGCGGTATGAAGTATGAAGGTGTATTATATAAATGTAAACATATCATCGTTCCTTCATGGGGAGGTCTCCTAGAGTCCCAAGCCTGTGCAAGCCGGTGCGACGGCGCTCTTAAGGATGGCATGCAATCGAGGGGATATATTTTCATGGGTCGTATTAGCCGCGCGGGGCCCATACGACGTACTACGAAATAGGCCGTCCTTTCAATACTGGCATATCAAGACATTCGTCTTGACATAATAACTACTAGGGGCGGGGCTAGATAATAGCCGCCGGTGATCCGTTTAGGCGTAAGATTTGACCATACGATAAAGCGGCGTAACGTCTAACGTCTTGATCTAGCGGCATAGAACTGGATTTTGCTCCAAGACACCATCATCATTAGCCGCGTATGAACCCTAAATTTGTCGCCGTTTATACAACAGATTTGATAGAAAGGTCGTATTACAACATACAACAATAAAGCTGCTACGCCATACGGATTTGACCGAACTAGGGAATAACTGGAGAGCCGATGGCCCGTTTAATAAAGCTAGCCGCTAGCCGCACTAGGGACGAAATGCGGGGCTTCTCTCCAAACTGCCTTTCAGACCCTTTTAAAAGAACTGGATTTTGCTCCAAGACACCATCATCATCGGTATCCGCGATTCGAATTCGGAGGTCGAGGATACATATCAGAGGATATACAACAATAAAGCGACCCTTCATATCAGCGGGGCCGGCGCACCTACTACCACAGTACGAAATTCCTAATATTGAGGATAGAGGATACGGTGGGAGACATTCCTGATAGAGGATATTAAAAGAATAACTCCGTTTACATATCATAGAAAGACGAAATTTCATGGGACTCAGAACGAAGGCCTGTGCAAGCCGGTGCGACGGCGCTCTTAAGGATGGCATGCAATCGTAACAGTCCCAAAGACATTAAGTAAGGTTGGTGGCGGGGCCCTACTACCACAGTCGGTATCCAGGACCGGGGAGCTGCTTCGACTTGCGACGAAATCATATCAGAATGCATGGGCGGGGCGGAGGTCTAGCCCACGTCTAACGAATTCGTTGGTGGCCTGTGGAATGACCGGTGGGCCGTTTACAAACTGCTAAGGATGCTTCGATATGGCATATGGCAACGAAGCAAGCCGGTGCGACGGCGCTCTTAAGGATGGCCGCGATTCGAATTCAGTTAGCCGTCTAATTTGTCGTTCTCTCTACAACAATAAAGCTAGCCGCATGCAATAACGAAGCGCGATTTTTGTCGTTCTCTCCAAACTGCCGTTTATACAACAATAAAGCAACGTCAGTCTAACAAACTTCTGCTAAGAACGTCAGTCTAACAGCTCACGGTGTATGACCCTTTCGCATCTCCTGCTAAGTCTCGCATTTAGCTGATAATTAGAGTGCCCGAGATCGATGTAGCAGCTTCTATCAATTTAAAAGATGCAATGGTCATCAAACTTCTCGCATCTTTAGGACACCACTTAGATAATGCTAAGTAGCCGCTTACCAGCTTCTTTAGGATGCTACGGGAGAGCACTAGGGTCCTGCTAAGTCTCATCTAGCAACGAAGCGCGATTACATACGATGTAAAACATACGGCATTTAGCTGATAATTAGAGTGCCCGAGATCTATCAATGCGGGGCATGTAAACGAATTCAAGTCTCCGAGGGGGATGTAGGAATGACGATTTGACGATGGCTAGCCGCACTAGGGATGTAAAATGACACTTCAGATTTGATTTAGGATGCTAAGCCATACGCAGCTTCATGTAAAGACTCAGGATGTAGGACCCTTCAGCTTCCCGTTTATACAACACAAGCCGGTGCGACGGCGCTCTTAAGGATGGCATAAAGCTTCGGCAGAATGACTTAAAAGCGTAACAGTCCCAAACATACGCCACAGTAATAACTAACGTCAAATAACTCCATACGGACAAGTGATTTATACGAGTCGAGGCCATTACCACAGTGTCTAACAAACTTCCCTACTATATCAATTCGCATCATATGGCCGGTATCGCCTGTGTTTGATTTAGCCGCCGCTATCAACTGGATTTTGCTCCAAGACACCATCATCATGGCTGTATCCTGCTGCTCTTCATGCAATGTCGTATAGTTAGCTCCTGCTCAGCTTCCGGTGGGCACCACTGGGGCATCCTACTAAGGAGCATATCAATACGGTAGAACATAAAGCCGGCGCAGCGTTAAGATGTAGGAATGACAAGTCTCTCCTGCTTAGAAAGAACGAAGCATATCATCGCATCTAGGAGGGTGTGTTTCTCTGTCTAGGCCAGATTGACCTTGTGGAATTTAAAAGGAGGATACGCGATTGCCTGTGTCGCATCGATGTAGGCGTTAAAAGTCTCCAATTTTCAATTTTTACAACAGTTACGTAGGAGCATTAAGTCAAGTAAGTTGGCGTTAAGTGTCACTATCAATCACCACTGGGGCATGCCTGTGCGGTATCCGAATTCGAATGACGACCCTTCCTGCGTCAAGCCGGTGCGACGGCGCTCTTAAGGATGGCTCGCCTAGCTCTTCTTCGGCAGGGGCATCGGGCGCCGGTATCCGGGCGCCGCTGCCACATACGATACTGGCGGTGGGGTACCTGGTTACGTGGTGGAACAAACCTCTCATTGACCCGTCGTTACTATAACCTACTACAGCTTCATGTAAAAGAGAACGACCCTTTTAAAAGCGCTGCCGCTCTTCTTTGATTTTTGATTGCATTTAGCTGATAATTAGAGTGCCCGAGATCTTCGGCACTAAAAGTCGCCTAAGAGAACACATACGTAGCCGCGCTCAAGTCGCATCGAATGACCCACAGTGCGGGGCTCGTTCCTCATCATCCAAGTAGAACGTTGGTGCCGTTTAGTGTCACGATGTAGTCCTGCTCAATTTTATAAAGCTATCAATATGCAATCCTGCGTACGAAATCGGTATCCAAGCCGGTGCGACGGCGCTCTTAAGGATGGCGCCTGTGCCTGCGTGTGGAATAACGAAGAAGTAAGTACAACAGTGTCACGTTGGTGAAGTCTCGGGGCATATACTGGAAGTAAGGTTACGTCCGTTCGCATCCTAAGGACGGTGGGCGGGCGCTCCTGCTATACTGGATGTAAACCGTTTAGTTGGTGGGCGTAATAGGAGGTCGCCTAAAGTCTCGTGTGTTTCTCTGTCTAGGCCAGATTGACCTTGATGTAGCGCTATCGGCTGTAACGTACTCATATCAGCGGGGCACATACGTATCAATTCGCATCCGCTGCCCTTTGGGCTCAACGTCCTGCTTCATCTGACCAAGTCTCGATGTAGGCTCAAGAGAGAACGCTCAAGACATACGTATCAATTCGCATCGAGGATATATATAAGCCCATGCGAATTCCAAACCTAAAGTGAAACTGGATTTTGCTCCAAGACACCATCATCATGTGGCCGAACGAAGCGCGATTTTCGCCGCGAATTCACGAAATTCCTGCTCAGCTTCATGTAAACTTTGGGCGCTGCCAGAGAACATACTGGGTTACTCAAGCGGTGGGACTAGGGCGGGCGCCTCAACGAAGTAAGGAATGACAAGTCTCCTAAGGACGCGATTCCTGGCCGTGGAATATGCAATACAGGAGAACTGGATTTTGCTCCAAGACACCATCATCATGTCCGGAGGCTGTATAGGAGGGGCCTGGCTTTGGGCTCAACGGATGTAGCTCAACGCTAAGGACTAAGGACCATACGGATTTGACCTACTAGCCTCTGCCCCCACAGTCATATCAAATAACTAAGTAAGTATCAATCTTTGGGGAATGACATGTAAAGCTCAAGAGGCAATGAGACCACGCTATCAGGTTTCGCATTTAGCTGATAATTAGAGTGCCCGAGATCGTTGATAGCGCCTGACCGTCGGAACGTGGAATGACCAGCTTCCAGCTTCATGTAAAACATACGGTTGGTGACGAAATGAGGATAAATAACTCCATACG'
p496
aS'GTATGAAACTATAAGTACCTGTAAGTTGACAGGAGGTCCGGAAGGTTTCATGTAAAACATACGTATCAATGCGTTAACAATTTTGTGTCACTGCTAAGAACGTCAGTCTAACGTGTGTTTCTCTGTCTAGGCCAGATTGACCTTAAACTTCGTCTAACTTTAGGATCGTTCCCGGCGCACACCACTTCGCATCGGTCATCCAGCTTCGTTGATAAGGCCGTGTGGCCGTAGATAAGTTGATACGTCGTTCCCTAAAGTTCGTTGATATCGTTCCGCGCCTGACCGTCGAAAGTGACGGTGATGTGTATGGAATGACAGCTCACGGTGTATAAACTTCGACCCTTTTAAAAGGATGTAGAAACTTCCACCACTGCATTTAGCTGATAATTAGAGTGCCCGAGATCGCGTTAATTTGATTAAGTCTCCGGTATCTACAACAGTCTAACCGCTATCCAGCTTCGATGTAGAATCCATATGCAATCAAACCTGAGACCAACCGACGTTCATGGGCGCCTGGAAGTAGAAAGGGAGGTCGAACGAAGACTAGTGCCTCAAAACGAAGCGCGATTAAGTCTCATGTAAAACATACGAACGTCAATAAAGCTAGCCGCTCCTGCTTTCGGCAAGACATTAACTGGATTTTGCTCCAAGACACCATCATCATTGCTTCGTATCAATTCGCATCACGAAATTTTAGGATGCTAAGTATCAATTCGCATCTCCTGCTCGAATTCTCATCATCTTGCCCTACCTTGTTCTCTCCAAACTGGTAAACGTACTTTTGTCGGGGTTAATATACTCATTGACCTCGTTCCCGTCGTTTATCAATTCGCATCTCCTGCTGCCTCAAGAGGATACATATCAACATACGCGTCTAATTTGTCGAACTGGATTTTGCTCCAAGACACCATCATCATTTCTCTCGTGTCACATGTAAAGCGGGGCATGCAATCTTGCCCAAGTCTCTAGGAGGACATACGACTATAAGGCATAGGGTGGAAATCTACGACGAAATCGTCTAATATATAAGAGACCGTCGGCCCATGGGGTGGACTAAAAGGCTCTAGGCCTGTGCAGGCAGGTACCTGGAATGACGGCTGTAGATGTAGCCGTTTAGCCTGTGCCGTTTAGCTCTTCCAATTTTCAAACTGGTGTGTTTCTCTGTCTAGGCCAGATTGACCTTGGAGGTCGCGTTAATCGCCTATACAACAACTATAAGCGGGGCCCTTTCAAAGTCTCGATGTAGTAAGTTGACCGTCGCGGTATCTAGCCCAGGAGAGCCGAATTCTTCGCCGATATATCTTGCCTGGCCAGGTTTCTGCTACGACTTGCGCCTGATAGCGCCTGTAGATAAATCTAGCTCCTGCTGTATGAACGATGGCCGTCGTTATAAAGCAACGTCACACCACTTTCATGGGTGTGTTTCTCTGTCTAGGCCAGATTGACCTTGACCCTTTTAAAAGTGCTAAGTAGCCGCGCCATTAGGAGAGCCCCTAAACGTCTTGCGAGGGGTGCTACGGGAGAGCGGGGAGCGACCCTTTTAAAAGGTCCGGAGGCCTGGAGTGGTGGCCGACAGGAGCGGTATCCTAAAAGCAGGACCCGATGGCGTCCCAAGACTCAGATATATTTAGATAATGCTACGAGGAGCAACTTGCGTTTAGGACGGTATCGCATTTAGCTGATAATTAGAGTGCCCGAGATCGCCTGTGGTGGAATTAGCCCAGTAGAACGAGGATATAAGTTGTCCTAGATCCTGCTCGTAACACGGCGCAGACCCTTGAGACCAGCCTGTGAACGAAGAAAGTGAATACTGGCGTTTCCTAGACAAACCTCGCGATTCGATGGCACCGTCGTTAAAAGGAGACCAATATGGCAAGTCTCGATGTAGGTACCTGCATATCAGTACCTGGCTCTAGCCTGCGTCAATTTTGTGTGTTTCTCTGTCTAGGCCAGATTGACCTTGTGTCACGAATGACATCTACGTAAGTTGATTGACCACTATAAGACCCTTCAGCTTCAGTTAGCCTAAAAGAGTCAAGGCGCCTGCGGCGCAAGACATTTAGCCGCCACTTCACCGACTAAAAGATAAAGCTGCTTCGGAGGATAGTTGATAGTTACGTTAGCCGCCGAATTCATGTAAAGTGGAATCGTCGTTTCATCATAACGAAGTATACTCCAGCTTCTTTAGGAGCATTTAGCTGATAATTAGAGTGCCCGAGATCTGCTAAGTACCTTGGGGTTAACGCGATTCGGCGCATCGTTCCCCTGCGTAACGAAGCGCGATTTAGAAAGGTCCGGAAGGTTTCCATATCACCGTTTATACAACAGAAGCGGTATCGCGGGGCGCGGGGCCCGTTTAACAGGAGGTCGTATGGCGTAAATGCAATTCGCCTAGCTCTTCCGATGGCCGAATTCGACCCTTGACTAGTAACGTCAGTCTAACGTGTGTTTCTCTGTCTAGGCCAGATTGACCTTAAACTTCACCGACGGAACGAATTAAAAGTGCTACGGGAGAGCTTTGATTCGGTATCGCCTGTGACGTACTAAAGTGAGTGGCCGTACAACAGAGGATACATATCAGCCTGTGAGTCGCAAGTATGCAATCGAATTCACGAAATATAAAGCGTTACGTCAAACCTTATATAAGAATGACTTAAAAGTTCGGCAGGTGGAATAGATAACGGTATCCGAATTCGGGTGGACACCACTGTGTGTTTCTCTGTCTAGGCCAGATTGACCTTGCGTTAAAACGAAGCGCGATTGCCTGTGAGTCAAGGTTACGTGAATGACGACAAGTAGTCGAGGCCCATGAGGAGCAGTAGAACTAGCCGCAACGAAGCGCGATTAACGAAGCCTACGTGGGCGCGATTATGCAATATGCAATGACCCTTGAACGTGGCCATTATTCGCCGTCGCATCCACTTCACAGCTTCACGAAATGTTACGTATGCAATTAGGAGGATGCAATCAATTTTAACTGGATTTTGCTCCAAGACACCATCATCATGTGTCACCGCTATCGGCTGTAAACGAAGCGCGATTCGAATTCATGTAAAACATACGTATCAATCCTGGCCGGCCTGGAGGCAATTTAAAAGCGGTATCGCCTGTGCGAATTCCCTTTCAGTATGAATTCGGCAGAATGACCAGCTTCGGTGGAAATTGACCTCATCATGTTGGTGATACTGGCGGTGGGGGGGAGCCCTGATAAGGCCGTGCATTTAGCTGATAATTAGAGTGCCCGAGATCCGGTGATCAAACTGCAGGACCCCTACTAGTTACGTAAGTAAGCTTGCCCCCTTTCAGTTACGTATGTAAAGTCTAACTTTGATTCCCTAAACGTACCACAGTGCTCTTCAAACTTCCACCACTAGTCAAGGTATGAACCCTAAACTAAGGAGGTGGAAATTGACCCGAATTCGGAGGTCTTCATGGGTGTGTTTCTCTGTCTAGGCCAGATTGACCTTGCCATTAAGTCGAGCGCGATTTCATCATATAAAGCCTCAACGCGTCTTGCTTTGGGGTTACGTGCGTTAAACTAGGGTCGCCTAAATAACTGAAGACGAAATCCTGCGTGACCCTTTTAAAAGGTAGAACCTCAACGCTAAGGACTTTGGGTAGCCGCATACTGGAACGAAGCCTTTCAGTATGAAGCATTTAGCTGATAATTAGAGTGCCCGAGATCCCCTAAAGCCTGTGATGCAATCGGTGGGAGAGAACGCTCAAGAAGTAAGGCCATTAAGGAGCACGGTATCTAGGAGGGTGGAATGAGGATATTAAACCCTTCATATCAGCGGGGCGGCTGTAGCCTGTGATGCAATTAGCCGCGTTGGTGCGCTATCCGCTGCCCCTACTACCACAGTCGGTATCCGTCTTGATATATTGCATTTAGCTGATAATTAGAGTGCCCGAGATCTCCTAGAGTAGAACTTAAAAGAATAACTGCCTCAACGGGCGCGGCTGTATCCTAGAATAAAGCAACGAAGGTGTCACCGCTATCCCGTTTAGATTTATACGTACAACAGATTTGACAATTTTCGCGATTGCTCAAGATATATTTAGGAGGTACAACACTTGCCCCCATACGGACAAGTAGGAGCACACTTCAGTGTGTTTCTCTGTCTAGGCCAGATTGACCTTGACAAGTAATCCATCACTTCAGATTTGAAATAACTCCGTTTAGTGGAATAGACATTAGAGAACCGAATTCTATCAATCCATACGATAAAGCATATATCTTGTAGCCGCAACGTCAACATACGGGGTGGAGTGTCACGCCTCAACCTGCGTAGTCAAGCCACAGTACTAGGGTTCTCTCGTGTATGAGTCGAGGCATTTAGCTGATAATTAGAGTGCCCGAGATCCCTTTCAGTATGAATTTGTCGCGCTATCGGCTGTAGTTACGTTCGCCTAGCTCTTCCAATTTTACCGACGGAACGAATGCTAAGCAAACCTAAAGTGAGAACGGCAATGTGGCCGGTGTCACTTTAGGAGACTAGTCACCACTGCGTTAATTTGATTAGGAGCAGTAGAACTAGGAGGTGCTTCGCGTCTAACCCTAAAGTGTGTTTCTCTGTCTAGGCCAGATTGACCTTCGTCTTGATATATTAGACATTGTGGAATCATATCAGCCATTATTCGGCACGGGCGCAAACTTCTACCTTGCCACAGTCAATTTTACAGGAGCGTTTCCTAGAGCGTTAAAATAACTTCGCATCGTCTAACCGCTGCCTGCTTCGTAGCCGCGCGGGGCCCATACGCGAATTCTCCTAGACAGGCAGCAAGCCGGTGCGACGGCGCTCTTAAGGATGGCGGCATAGAGTCGAGCGCGATTGATTTGATTCGGCAATAAAGCCGTCTAACCGTTTAAACGTCATCCTGCTTAGCCCACACCACTCACTTCAACCAACTAGGGAAACTTCACTTGCGCGCTATCTGCTAAGTACAACACACTTCATACAACAGGGGCATCAGGACCAACGAAGGACCCTTGTTACGTGCATTTAGCTGATAATTAGAGTGCCCGAGATCAGTCAAGGCCTGTGATGCAATGGGGAGCGCGGGGCCCGTTTAGACAAGTTTCATGGTTTAGGAGGCTGTAAACGTCAGTCTAACACGAAATGGCGTCGTATGAGGATACATATCATGCTAAGTAGGAGGGTGGAATGGAGGTCAGTCGAGATACTGGCATATCACCTGATAAGGCCGTCGGTATCGTTACGTGGTGGAACAAGCCGGTGCGACGGCGCTCTTAAGGATGGCATTGACCGACCCTTTTAAAAGCGGTGATACGAAATGAGGATACGGTGGGTTCTCTCCAAACTGCCTGCGTGATGTAGTTTAGGAGCGGGGCAGTCGCAAGTCCGTTTAGCTCTAGAAGTCTCTCGCCTAGCGGGGCTTTGTCGCCTACTATTTGATTACTAGGGGTGTATGGACAAGTTAGCCGCTCATCATAACTGGATTTTGCTCCAAGACACCATCATCATCTTGCCCTCCTAGACACTTCAAATCCATTCGCCTAGCTCTTCCCACAGTGAGGATACATATCAGCTCTTCTATACTCATCTACGTACAACAAGGTTCCGGAATAAAGCCCTACTAGGGTTAATTTGATTGGGGCATACGAAATAATAACTGAGGATACCTGCGTCAGGCAGCGTCTTGATATATTGCCTCAAGTGTGTTTCTCTGTCTAGGCCAGATTGACCTTCCTTTCAGTATGAACCCTAAAGGCATAGTAGCCGCACGAAATCCATACGGATTTGAACTAGGGTTCGGCAATACTGGCGGTGGGTAGCCGCCCTTTCA'
p497
aa(lp498
(lp499
S'GAATTCGAATCGCGCTTCGTTATTGCATCACAGGCGATACCGCTTTTAAAAGGGTC'
p500
aS'CCCTAGTTCAAATCCGTATGGAGTTATTACTGTGGTAGTAGGCCCACCGCCAGTAT'
p501
aS'CCATGAAGACCTCCCAGTTTGGAGAGAACGACAAATTAGACGCGAAGCAAATGTCT'
p502
aS'GCGGCTAGCTTTATTGTTGTATAAACGGGCCCCGCTGATATGTATCCTCATTTCGT'
p503
aa(lp504
S'CTACATCGAGACTTAGCAGGAGATGCGAATTGATACGTATGTTTTACATGAAGCTGGTCATTC'
p505
aS'CTCGACTACTTGTCTGAAGTGTCTAGGAAATATATCAAGACGTTTAGGGTTCATACTGAAAGG'
p506
aS'TGCCGAAAATCAAAGAAGAGCTAGGCGAACGCAGGATTCCACCCTCCTATACAGCCGATAGCG'
p507
aS'GTGACACAAAATTGTTAACGCAGTGGTGGAAGTTTGTTAGACTGACGTTCTTAGCATCCTAAA'
p508
aa(lp509
S'TGCGCCGGCCATCGGCTCTCCCGTAGCATTATCTACAACTTACAGGTACTTATAGTAACGACGGGAACGA'
p510
aS'ATACACCGTGAGCTGATGACCGCTAGATCCCCTCGCTGAGTCTTGGGACTGTTACGGCCATATGCTAACT'
p511
aS'CACCAACCTTACTTTCCTTAGCGTTGAGCCCAAAGCTTGAGCGTTCTCTGGCAGCGGCGCCCGATGCCCC'
p512
aS'GCGGCTACTATGCCCTGCCTGATGGATTCATACACATCACCGACGGCCTTATCAGGGCTCCCCGGTCCTG'
p513
aa(lp514
S'CACGTTCATTGCCTCCAGGCCGGCCAGGCGGCGAACATGGGCTTATATAAGTACGTTTACGCCATACGACCTTTCTA'
p515
aS'CTTTTAGTGGTCTCCGACGGTCAGGCGCTATCAACGAAACCTTCCGGACCTCCTGTCGGCCACTCACTTTAGGTTTG'
p516
aS'CGCAAGTTGGGCTACTAGAGCCGTAGATGAGTATATTAACCCCAAGGTAACTAGTCTTCGTTCCGTCGGTTCCACCC'
p517
aS'TTGAGGCGGGCAAGATGATGAGGTCAATTTCCACCACGTAACCTTGACTACGTAACGTTCTACTGCTCCTTAATGGC'
p518
aaa(lp519
(lp520
S'CTAGGAGCAAAATCCAGTTATGATGATGGTGTCTTCAT'
p521
aS'CCGAGACAGAGAAACACACAAGGTCAATCTGGCCTAGC'
p522
aS'CATCCGTCGCACCGGCTTGGCCATCCTTAAGAGCGCAA'
p523
aS'TTGATTATCAGCTAAATGCGATCTCGGGCACTCTAGTG'
p524
aaa.