(lp0
(lp1
(lp2
(lp3
F38.2
aa(lp4
F63.1
aF91.1
aF63.1
aF63.1
aF63.1
aF63.1
aF98.1
aa(lp5
F98.1
aF56.1
aF77.1
aF91.1
aF91.1
aF91.1
aa(lp6
F63.1
aF70.1
aF56.1
aF77.1
aF91.1
aF63.1
aF84.1
aa(lp7
F77.1
aF84.1
aF77.1
aF70.1
aF63.1
aF63.1
aF70.1
aa(lp8
F56.1
aF56.1
aF63.1
aF56.1
aF56.1
aF98.1
aF56.1
aF63.1
aa(lp9
F91.1
aF98.1
aF56.1
aF56.1
aF105.1
aF98.1
aa(lp10
F63.1
aF84.1
aF105.1
aF84.1
aF63.1
aF105.1
aa(lp11
F56.1
aF56.1
aF70.1
aF56.1
aF63.1
aF63.1
aF56.1
aF84.1
aa(lp12
F91.1
aF56.1
aF70.1
aF70.1
aF70.1
aF56.1
aF91.1
aa(lp13
F70.1
aF77.1
aF91.1
aF91.1
aF84.1
aF91.1
aa(lp14
F38.1
aa(lp15
F38.2
aa(lp16
F38.1
aa(lp17
F38.2
aa(lp18
F38.2
aa(lp19
F38.2
aa(lp20
F38.2
aa(lp21
F38.2
aa(lp22
F38.2
aa(lp23
F38.1
aa(lp24
F38.1
aa(lp25
F38.1
aa(lp26
F38.2
aa(lp27
F38.1
aa(lp28
F38.2
aa(lp29
F38.1
aa(lp30
F38.1
aa(lp31
F38.1
aa(lp32
F38.1
aa(lp33
F38.2
aa(lp34
F38.2
aa(lp35
F38.2
aa(lp36
F38.1
aaa(lp37
(lp38
F38.1
aa(lp39
F63.1
aF63.1
aF56.1
aF56.1
aF63.1
aF77.1
aF63.1
aF63.1
aa(lp40
F84.1
aF70.1
aF56.1
aF70.1
aF56.1
aF63.1
aF105.1
aa(lp41
F84.1
aF70.1
aF70.1
aF70.1
aF70.1
aF70.1
aF70.1
aa(lp42
F63.1
aF63.1
aF63.1
aF63.1
aF70.1
aF63.1
aF63.1
aF56.1
aa(lp43
F70.1
aF70.1
aF63.1
aF84.1
aF63.1
aF84.1
aF70.1
aa(lp44
F77.1
aF91.1
aF84.1
aF84.1
aF91.1
aF77.1
aa(lp45
F77.1
aF77.1
aF77.1
aF56.1
aF70.1
aF70.1
aF77.1
aa(lp46
F56.1
aF105.1
aF105.1
aF56.1
aF56.1
aF63.1
aF63.1
aa(lp47
F77.1
aF56.1
aF56.1
aF84.1
aF63.1
aF84.1
aF84.1
aa(lp48
F63.1
aF105.1
aF84.1
aF84.1
aF84.1
aF84.1
aa(lp49
F38.2
aa(lp50
F38.2
aa(lp51
F38.2
aa(lp52
F38.2
aa(lp53
F38.1
aa(lp54
F38.2
aa(lp55
F38.2
aa(lp56
F38.2
aa(lp57
F38.2
aa(lp58
F38.1
aa(lp59
F38.2
aa(lp60
F38.1
aa(lp61
F38.2
aa(lp62
F38.1
aa(lp63
F38.2
aa(lp64
F38.1
aa(lp65
F38.1
aa(lp66
F38.2
aa(lp67
F38.1
aa(lp68
F38.2
aa(lp69
F38.1
aa(lp70
F38.1
aa(lp71
F38.2
aaa(lp72
(lp73
F38.2
aa(lp74
F105.1
aF70.1
aF105.1
aF63.1
aF98.1
aF63.1
aa(lp75
F98.1
aF98.1
aF63.1
aF98.1
aF56.1
aF91.1
aa(lp76
F77.1
aF84.1
aF91.1
aF98.1
aF84.1
aF70.1
aa(lp77
F77.1
aF56.1
aF84.1
aF56.1
aF91.1
aF84.1
aF56.1
aa(lp78
F70.1
aF105.1
aF98.1
aF98.1
aF77.1
aF56.1
aa(lp79
F84.1
aF91.1
aF84.1
aF84.1
aF63.1
aF98.1
aa(lp80
F63.1
aF98.1
aF56.1
aF105.1
aF56.1
aF70.1
aF56.1
aa(lp81
F91.1
aF56.1
aF56.1
aF70.1
aF56.1
aF63.1
aF56.1
aF56.1
aa(lp82
F63.1
aF56.1
aF63.1
aF56.1
aF105.1
aF105.1
aF56.1
aa(lp83
F63.1
aF63.1
aF77.1
aF63.1
aF77.1
aF63.1
aF98.1
aa(lp84
F38.2
aa(lp85
F38.2
aa(lp86
F38.1
aa(lp87
F38.1
aa(lp88
F38.1
aa(lp89
F38.2
aa(lp90
F38.1
aa(lp91
F38.1
aa(lp92
F38.2
aa(lp93
F38.2
aa(lp94
F38.1
aa(lp95
F38.2
aa(lp96
F38.1
aa(lp97
F38.2
aa(lp98
F38.1
aa(lp99
F38.2
aa(lp100
F38.1
aa(lp101
F38.1
aa(lp102
F38.2
aa(lp103
F38.2
aa(lp104
F38.1
aa(lp105
F38.1
aa(lp106
F38.2
aaa(lp107
(lp108
F38.2
aa(lp109
F56.1
aF63.1
aF56.1
aF56.1
aF70.1
aF91.1
aF56.1
aF56.1
aa(lp110
F91.1
aF56.1
aF84.1
aF77.1
aF63.1
aF70.1
aF63.1
aa(lp111
F63.1
aF63.1
aF56.1
aF56.1
aF105.1
aF98.1
aF63.1
aa(lp112
F98.1
aF84.1
aF63.1
aF63.1
aF98.1
aF98.1
aa(lp113
F70.1
aF63.1
aF70.1
aF63.1
aF70.1
aF98.1
aF70.1
aa(lp114
F77.1
aF63.1
aF70.1
aF70.1
aF70.1
aF77.1
aF77.1
aa(lp115
F105.1
aF98.1
aF63.1
aF63.1
aF77.1
aF98.1
aa(lp116
F70.1
aF84.1
aF84.1
aF98.1
aF84.1
aF84.1
aa(lp117
F91.1
aF98.1
aF84.1
aF98.1
aF70.1
aF63.1
aa(lp118
F63.1
aF77.1
aF56.1
aF98.1
aF105.1
aF105.1
aa(lp119
F38.2
aa(lp120
F38.2
aa(lp121
F38.2
aa(lp122
F38.2
aa(lp123
F38.1
aa(lp124
F38.1
aa(lp125
F38.2
aa(lp126
F38.1
aa(lp127
F38.2
aa(lp128
F38.2
aa(lp129
F38.2
aa(lp130
F38.2
aa(lp131
F38.1
aa(lp132
F38.1
aa(lp133
F38.1
aa(lp134
F38.2
aa(lp135
F38.1
aa(lp136
F38.2
aa(lp137
F38.1
aa(lp138
F38.2
aa(lp139
F38.2
aa(lp140
F38.2
aa(lp141
F38.2
aaa(lp142
(lp143
F38.1
aa(lp144
F105.1
aF56.1
aF98.1
aF77.1
aF56.1
aF56.1
aF56.1
aa(lp145
F56.1
aF56.1
aF56.1
aF56.1
aF70.1
aF77.1
aF56.1
aF77.1
aa(lp146
F63.1
aF70.1
aF70.1
aF77.1
aF98.1
aF63.1
aF63.1
aa(lp147
F56.1
aF91.1
aF84.1
aF56.1
aF56.1
aF56.1
aF105.1
aa(lp148
F56.1
aF70.1
aF56.1
aF84.1
aF70.1
aF105.1
aF63.1
aa(lp149
F70.1
aF105.1
aF63.1
aF105.1
aF91.1
aF70.1
aa(lp150
F84.1
aF77.1
aF84.1
aF77.1
aF77.1
aF105.1
aa(lp151
F70.1
aF105.1
aF77.1
aF91.1
aF105.1
aF56.1
aa(lp152
F105.1
aF91.1
aF56.1
aF63.1
aF63.1
aF63.1
aF63.1
aa(lp153
F84.1
aF70.1
aF98.1
aF98.1
aF77.1
aF77.1
aa(lp154
F38.1
aa(lp155
F38.2
aa(lp156
F38.2
aa(lp157
F38.2
aa(lp158
F38.1
aa(lp159
F38.1
aa(lp160
F38.1
aa(lp161
F38.2
aa(lp162
F38.2
aa(lp163
F38.1
aa(lp164
F38.1
aa(lp165
F38.1
aa(lp166
F38.2
aa(lp167
F38.1
aa(lp168
F38.2
aa(lp169
F38.2
aa(lp170
F38.1
aa(lp171
F38.1
aa(lp172
F38.1
aa(lp173
F38.1
aa(lp174
F38.2
aa(lp175
F38.1
aa(lp176
F38.1
aaa(lp177
(lp178
F38.1
aa(lp179
F84.1
aF105.1
aF70.1
aF105.1
aF84.1
aF56.1
aa(lp180
F84.1
aF84.1
aF84.1
aF84.1
aF84.1
aF84.1
aa(lp181
F63.1
aF70.1
aF70.1
aF70.1
aF63.1
aF98.1
aF70.1
aa(lp182
F98.1
aF98.1
aF56.1
aF98.1
aF70.1
aF84.1
aa(lp183
F84.1
aF84.1
aF84.1
aF84.1
aF91.1
aF77.1
aa(lp184
F77.1
aF91.1
aF77.1
aF63.1
aF91.1
aF105.1
aa(lp185
F84.1
aF84.1
aF105.1
aF98.1
aF63.1
aF70.1
aa(lp186
F56.1
aF105.1
aF56.1
aF70.1
aF77.1
aF63.1
aF77.1
aa(lp187
F84.1
aF84.1
aF84.1
aF84.1
aF84.1
aF84.1
aa(lp188
F105.1
aF105.1
aF56.1
aF70.1
aF70.1
aF98.1
aa(lp189
F38.2
aa(lp190
F38.2
aa(lp191
F38.1
aa(lp192
F38.2
aa(lp193
F38.1
aa(lp194
F38.1
aa(lp195
F38.1
aa(lp196
F38.1
aa(lp197
F38.2
aa(lp198
F38.1
aa(lp199
F38.2
aa(lp200
F38.1
aa(lp201
F38.1
aa(lp202
F38.1
aa(lp203
F38.2
aa(lp204
F38.2
aa(lp205
F38.1
aa(lp206
F38.1
aa(lp207
F38.2
aa(lp208
F38.1
aa(lp209
F38.1
aa(lp210
F38.1
aa(lp211
F38.1
aaa(lp212
(lp213
F38.1
aa(lp214
F98.1
aF105.1
aF84.1
aF98.1
aF56.1
aF63.1
aa(lp215
F56.1
aF56.1
aF56.1
aF105.1
aF105.1
aF70.1
aF56.1
aa(lp216
F105.1
aF56.1
aF91.1
aF98.1
aF77.1
aF77.1
aa(lp217
F91.1
aF91.1
aF84.1
aF77.1
aF98.1
aF63.1
aa(lp218
F70.1
aF56.1
aF84.1
aF56.1
aF84.1
aF84.1
aF70.1
aa(lp219
F84.1
aF56.1
aF84.1
aF63.1
aF77.1
aF63.1
aF77.1
aa(lp220
F77.1
aF63.1
aF56.1
aF56.1
aF98.1
aF56.1
aF98.1
aa(lp221
F70.1
aF70.1
aF98.1
aF84.1
aF70.1
aF56.1
aF56.1
aa(lp222
F91.1
aF70.1
aF98.1
aF70.1
aF70.1
aF105.1
aa(lp223
F105.1
aF56.1
aF70.1
aF56.1
aF77.1
aF70.1
aF70.1
aa(lp224
F38.2
aa(lp225
F38.2
aa(lp226
F38.2
aa(lp227
F38.1
aa(lp228
F38.2
aa(lp229
F38.1
aa(lp230
F38.1
aa(lp231
F38.2
aa(lp232
F38.2
aa(lp233
F38.1
aa(lp234
F38.1
aa(lp235
F38.2
aa(lp236
F38.2
aa(lp237
F38.2
aa(lp238
F38.2
aa(lp239
F38.1
aa(lp240
F38.2
aa(lp241
F38.2
aa(lp242
F38.2
aa(lp243
F38.1
aa(lp244
F38.2
aa(lp245
F38.1
aa(lp246
F38.2
aaa(lp247
(lp248
F38.2
aa(lp249
F84.1
aF84.1
aF84.1
aF56.1
aF70.1
aF56.1
aF70.1
aa(lp250
F56.1
aF98.1
aF84.1
aF56.1
aF84.1
aF63.1
aF63.1
aa(lp251
F63.1
aF56.1
aF56.1
aF77.1
aF56.1
aF77.1
aF63.1
aF56.1
aa(lp252
F84.1
aF77.1
aF91.1
aF77.1
aF84.1
aF91.1
aa(lp253
F84.1
aF98.1
aF56.1
aF91.1
aF56.1
aF63.1
aF56.1
aa(lp254
F105.1
aF105.1
aF56.1
aF70.1
aF84.1
aF84.1
aa(lp255
F91.1
aF91.1
aF105.1
aF77.1
aF77.1
aF63.1
aa(lp256
F77.1
aF105.1
aF56.1
aF98.1
aF105.1
aF63.1
aa(lp257
F56.1
aF63.1
aF63.1
aF56.1
aF56.1
aF56.1
aF91.1
aF63.1
aa(lp258
F91.1
aF70.1
aF105.1
aF70.1
aF77.1
aF91.1
aa(lp259
F38.1
aa(lp260
F38.1
aa(lp261
F38.2
aa(lp262
F38.1
aa(lp263
F38.1
aa(lp264
F38.2
aa(lp265
F38.1
aa(lp266
F38.2
aa(lp267
F38.2
aa(lp268
F38.1
aa(lp269
F38.1
aa(lp270
F38.2
aa(lp271
F38.1
aa(lp272
F38.1
aa(lp273
F38.1
aa(lp274
F38.1
aa(lp275
F38.2
aa(lp276
F38.2
aa(lp277
F38.2
aa(lp278
F38.2
aa(lp279
F38.2
aa(lp280
F38.1
aa(lp281
F38.2
aaa(lp282
(lp283
F38.1
aa(lp284
F77.1
aF56.1
aF105.1
aF98.1
aF56.1
aF56.1
aF56.1
aa(lp285
F70.1
aF105.1
aF77.1
aF56.1
aF105.1
aF91.1
aa(lp286
F77.1
aF56.1
aF105.1
aF56.1
aF63.1
aF70.1
aF77.1
aa(lp287
F63.1
aF70.1
aF56.1
aF56.1
aF56.1
aF91.1
aF56.1
aF56.1
aa(lp288
F56.1
aF84.1
aF70.1
aF105.1
aF84.1
aF105.1
aa(lp289
F105.1
aF91.1
aF70.1
aF91.1
aF70.1
aF77.1
aa(lp290
F56.1
aF56.1
aF84.1
aF70.1
aF56.1
aF63.1
aF63.1
aF56.1
aa(lp291
F63.1
aF63.1
aF63.1
aF84.1
aF63.1
aF105.1
aF63.1
aa(lp292
F105.1
aF91.1
aF91.1
aF84.1
aF70.1
aF63.1
aa(lp293
F70.1
aF56.1
aF63.1
aF105.1
aF84.1
aF63.1
aF63.1
aa(lp294
F38.1
aa(lp295
F38.2
aa(lp296
F38.2
aa(lp297
F38.2
aa(lp298
F38.2
aa(lp299
F38.2
aa(lp300
F38.2
aa(lp301
F38.1
aa(lp302
F38.1
aa(lp303
F38.1
aa(lp304
F38.2
aa(lp305
F38.1
aa(lp306
F38.2
aa(lp307
F38.1
aa(lp308
F38.2
aa(lp309
F38.2
aa(lp310
F38.2
aa(lp311
F38.1
aa(lp312
F38.1
aa(lp313
F38.2
aa(lp314
F38.1
aa(lp315
F38.1
aa(lp316
F38.2
aaa(lp317
(lp318
F38.2
aa(lp319
F105.1
aF91.1
aF63.1
aF63.1
aF63.1
aF56.1
aF63.1
aa(lp320
F91.1
aF63.1
aF84.1
aF56.1
aF56.1
aF98.1
aF56.1
aa(lp321
F105.1
aF91.1
aF105.1
aF98.1
aF105.1
aa(lp322
F77.1
aF98.1
aF98.1
aF77.1
aF77.1
aF77.1
aa(lp323
F56.1
aF91.1
aF105.1
aF77.1
aF56.1
aF56.1
aF63.1
aa(lp324
F84.1
aF70.1
aF63.1
aF63.1
aF84.1
aF63.1
aF77.1
aa(lp325
F70.1
aF63.1
aF56.1
aF70.1
aF56.1
aF84.1
aF105.1
aa(lp326
F63.1
aF63.1
aF77.1
aF70.1
aF63.1
aF70.1
aF98.1
aa(lp327
F63.1
aF70.1
aF70.1
aF77.1
aF70.1
aF70.1
aF84.1
aa(lp328
F77.1
aF77.1
aF70.1
aF77.1
aF56.1
aF70.1
aF77.1
aa(lp329
F38.2
aa(lp330
F38.2
aa(lp331
F38.2
aa(lp332
F38.1
aa(lp333
F38.2
aa(lp334
F38.2
aa(lp335
F38.1
aa(lp336
F38.2
aa(lp337
F38.1
aa(lp338
F38.1
aa(lp339
F38.2
aa(lp340
F38.2
aa(lp341
F38.2
aa(lp342
F38.2
aa(lp343
F38.2
aa(lp344
F38.1
aa(lp345
F38.2
aa(lp346
F38.2
aa(lp347
F38.2
aa(lp348
F38.2
aa(lp349
F38.1
aa(lp350
F38.2
aa(lp351
F38.1
aaaa(lp352
(lp353
(I1
I23
tp354
a(I15
I56
tp355
a(I16
I69
tp356
a(I18
I97
tp357
a(I15
I119
tp358
a(I13
I133
tp359
a(I11
I161
tp360
a(I4
I181
tp361
a(I3
I196
tp362
a(I10
I230
tp363
a(I14
I251
tp364
a(I0
I270
tp365
a(I3
I23
tp366
a(I2
I270
tp367
a(I5
I23
tp368
a(I4
I270
tp369
a(I7
I30
tp370
a(I6
I277
tp371
a(I9
I30
tp372
a(I8
I277
tp373
a(I11
I30
tp374
a(I10
I277
tp375
a(I13
I23
tp376
a(I12
I270
tp377
a(I15
I23
tp378
a(I14
I270
tp379
a(I17
I23
tp380
a(I16
I270
tp381
a(I19
I30
tp382
a(I18
I277
tp383
a(I21
I30
tp384
a(I20
I277
tp385
a(I23
I30
tp386
a(I22
I277
tp387
aa(lp388
g354
a(I6
I69
tp389
a(I13
I63
tp390
a(I21
I105
tp391
a(I2
I125
tp392
a(I10
I146
tp393
a(I16
I153
tp394
a(I1
I175
tp395
a(I2
I209
tp396
a(I0
I230
tp397
a(I17
I231
tp398
ag365
ag366
ag367
ag368
ag369
ag370
ag371
ag372
ag373
ag374
ag375
ag376
ag377
ag378
ag379
ag380
ag381
ag382
ag383
ag384
ag385
ag386
ag387
aa(lp399
g354
a(I6
I62
tp400
a(I18
I83
tp401
a(I18
I104
tp402
a(I22
I118
tp403
a(I10
I146
tp404
a(I16
I167
tp405
a(I7
I175
tp406
a(I0
I195
tp407
a(I8
I237
tp408
a(I15
I245
tp409
ag365
ag366
ag367
ag368
ag369
ag370
ag371
ag372
ag373
ag374
ag375
ag376
ag377
ag378
ag379
ag380
ag381
ag382
ag383
ag384
ag385
ag386
ag387
aa(lp410
g354
a(I23
I49
tp411
a(I7
I77
tp412
a(I13
I91
tp413
a(I22
I125
tp414
a(I7
I140
tp415
a(I3
I161
tp416
a(I5
I168
tp417
a(I22
I209
tp418
a(I5
I210
tp419
a(I10
I258
tp420
ag365
ag366
ag367
ag368
ag369
ag370
ag371
ag372
ag373
ag374
ag375
ag376
ag377
ag378
ag379
ag380
ag381
ag382
ag383
ag384
ag385
ag386
ag387
aa(lp421
g354
a(I17
I49
tp422
a(I6
I76
tp423
a(I13
I98
tp424
a(I17
I112
tp425
a(I14
I132
tp426
a(I16
I160
tp427
a(I6
I195
tp428
a(I20
I216
tp429
a(I7
I224
tp430
a(I8
I258
tp431
ag365
ag366
ag367
ag368
ag369
ag370
ag371
ag372
ag373
ag374
ag375
ag376
ag377
ag378
ag379
ag380
ag381
ag382
ag383
ag384
ag385
ag386
ag387
aa(lp432
g354
a(I16
I48
tp433
a(I6
I90
tp434
a(I7
I98
tp435
a(I3
I119
tp436
a(I17
I133
tp437
a(I18
I160
tp438
a(I2
I174
tp439
a(I7
I196
tp440
a(I2
I216
tp441
a(I0
I251
tp442
ag365
ag366
ag367
ag368
ag369
ag370
ag371
ag372
ag373
ag374
ag375
ag376
ag377
ag378
ag379
ag380
ag381
ag382
ag383
ag384
ag385
ag386
ag387
aa(lp443
g354
a(I16
I48
tp444
a(I3
I77
tp445
a(I7
I105
tp446
a(I15
I105
tp447
a(I22
I153
tp448
a(I10
I174
tp449
a(I9
I175
tp450
a(I14
I195
tp451
a(I8
I237
tp452
a(I15
I238
tp453
ag365
ag366
ag367
ag368
ag369
ag370
ag371
ag372
ag373
ag374
ag375
ag376
ag377
ag378
ag379
ag380
ag381
ag382
ag383
ag384
ag385
ag386
ag387
aa(lp454
g354
a(I8
I62
tp455
a(I6
I76
tp456
a(I13
I98
tp457
a(I12
I125
tp458
a(I22
I153
tp459
a(I2
I167
tp460
a(I13
I175
tp461
a(I23
I210
tp462
a(I9
I217
tp463
a(I1
I231
tp464
ag365
ag366
ag367
ag368
ag369
ag370
ag371
ag372
ag373
ag374
ag375
ag376
ag377
ag378
ag379
ag380
ag381
ag382
ag383
ag384
ag385
ag386
ag387
aa(lp465
g354
a(I18
I62
tp466
a(I7
I77
tp467
a(I9
I105
tp468
a(I6
I132
tp469
a(I4
I132
tp470
a(I17
I161
tp471
a(I15
I182
tp472
a(I21
I210
tp473
a(I17
I224
tp474
a(I12
I237
tp475
ag365
ag366
ag367
ag368
ag369
ag370
ag371
ag372
ag373
ag374
ag375
ag376
ag377
ag378
ag379
ag380
ag381
ag382
ag383
ag384
ag385
ag386
ag387
aa(lp476
g354
a(I10
I62
tp477
a(I11
I70
tp478
a(I20
I111
tp479
a(I10
I125
tp480
a(I3
I140
tp481
a(I7
I154
tp482
a(I19
I189
tp483
a(I13
I189
tp484
a(I9
I224
tp485
a(I22
I251
tp486
ag365
ag366
ag367
ag368
ag369
ag370
ag371
ag372
ag373
ag374
ag375
ag376
ag377
ag378
ag379
ag380
ag381
ag382
ag383
ag384
ag385
ag386
ag387
aaa(lp487
S'GTGCCCTCAATACGGGTATATGACCGTCAAGTCCTCACAGTTGCGAACTCCTAAATCTTAACTACACTGACAACAACCCGTTTCAATAGGGAAACATCGATGGTTTGGAAGCGGATCAGGGTACGTATCTGTATATCTACACTGGAGAATGCGCCCCTCCTACGTCGGATGGCGGATGGCGCTTCGGAGGCTAAAACATCGCGAACTCCTAAATAGACCGTTCGCACGCTTTCGAGACTCCAAACAGGAATTTCGTCTGAGAGGCTATTTGACTTTTGTAGCGGAGACGGATTGTGCATATGATCATCACACAGTTGATGGTTTGGAAGCCTCCTTAGTGCGCGGACGATGAACAGCGCGCTGTGCTCCTTAGGATCAGGGTACGTATCTGTATATCTACACTGCGCTTCGCTCCTTAATTTGTCGTGCCCTGATGGTTCGCTGTGGAGAATGAAAACTCAAGTCCTGGAGTATACACTGATTGCCGTTAGACGTTGGATTGGTCCCAGGACGATG????TCGCACG???????CTTGTATGCGCTCCGGAGTATGAGGCTA???????TCGCACG??????????????CGCCCCTTGGAAGCGAGAATGAGAAGATCGCTTCGCAACAACCCTGCAATGGCCAGCTGCGTCTATGGGCATACCCGTTTCGACGGGATTTGTGCCCTCCAAAAAACTCGCGCTCC???????TAGACGTAAAACTC???????GCATATGATCATCACGCCCCT??????????????AATTGCGAACT???????CGCTGTGCTCCTTAAGACCGT??????????????CGGAGAC??????????????TAGACGTAGCGAATGCACGTAGCTCTCTAATAGGGCGGATGGCCTGCAATGGCCAGCTGCGTCTATGGGCATACGTGCGCGCCGTTTCACACGCGAACAGCGGACTCCACGGAGACGTCATGAAGCGAATTTTGTAG???????GGATTGTGCGAAGGCGCTTCGGACGATG???????CCTAAATATTTCGCCCTCTTAACTGTCGGCGAAAACTCCAACAACCTTAACTTTGCCGT???????TAGACGTCCTCCAACTTATGGAAACATCATTTCGTCCTACGTCGCTGTGCAACAACGCGCTCCCCTGCAATGGCCAGCTGCGTCTATGGGCATACCGCCCCTAGCGAATCGCCCCTAAACATC???????CCTACGTTCTTCATAAGTCCTCGGAGAC???????ACACTGACCTAAATCCGTTTCGTCGGCGTCGGCCGACACTGATTTGTCTCCAGAGGCTAATTTCGTTCGGCCGAATAGGGGCGAAGGCTTAACT???????CCTACGTTCGCACGAGCAGTTAATAGGGGTGCGCGGATGGTTGCGCTCCCCTCCAACGCTGTGGGATCAGGGTACGTATCTGTATATCTACACTGCTCCTTACGCTTCG???????TGGAAGCGAGAATGCCGTTTCAACACCGTTCAGCAAACAGCG??????????????CCTGCGACGGATGGGTGCGCGGTGCCCTGACGATGGTGTGGATTGTGACGATG???????GCCGGTTGTTGAGG???????TAGACGTAAAACTCGTTTCGACGCTTCGCAACAACCCTCCAA??????????????CAACAACCCTGCAATGGCCAGCTGCGTCTATGGGCATACCCGTTTCTATTATG???????AGCGAATGCACGTACTCCTTAGCATCACGACTCCACGGAGAC???????CACAGTTCAGTATG???????GACCGTCTTGCCGTGACTCCAAA??CGGAGACGGAGTATCTTTCGATGGATTGTATTATGGCGAACTGAGGCTATTTGTAGTTTGTAGCACAGTTCGCTGTGAACAGCG??????????????GCGCTCCGCACGTACCTGCAATGGCCAGCTGCGTCTATGGGCATAC???????CCGATAA??????????????GACTCCACGCCCCTGCGAACTATTTCGTGACTCCAGTCATGAGTTGAGGATATGAGCTTGTAT???????ATCATCATAGACGTGTCTGACTCCAGCATATG???????GTGCCCTGCATCACCCTGCGAGTCATGAATTTCGTGACTCCAGCACGTAGCGCTCCTTTGTAGTTTGTAG???????ATCCAGTAATAGGGGGATCAGGGTACGTATCTGTATATCTACACTGCGGATGG??????????????CGGAGAC??????????????GACGATGGACGATGGTGCCCTCTTATGGTTCAGCAGTTTCGAATTTCGTGCGAAGGAGACCGTTTACTAGACGTCCTGCGAGACTCCATTTGTAGAACACCGTCTTCATAGCAGTTGAGGCTAGTGCCCTATTTCGT???????TAGACGTAAAACTC???????GTGCGCGGTCATGAGGATCAGGGTACGTATCTGTATATCTACACTGCTTATGG??????????????AACAGCG??????????????GACTCCACTTAACTACACTGAAACACCGTCTTCATAGCAGTTCGGAGACGCCGGTTGTTGAGGAAAACTCGACGAAACTCGACGATG???????CAGTATGTAGACGTGCCGGTTCTTATGGTTCAGCAGTGCCCTCCTAAATTTTGTAGATTTCGT???????CCTACGTATGTCGG???????TCTTCATCCTGCAATGGCCAGCTGCGTCTATGGGCATACAGCAGTTCGGATGGGTGCGCGAAACATCGACGATGGTGCCCTCGGAGACTATTATGGACGATGGTTTCGA???????CAGTATGAAAACTC??????????????GTGCCCTCGGAGTGTAGATTTCGTGGTATAT???????GTCCCAGAAGTCCT???????GCATCACATTTCGTATATGAGTAGACGTAGCGAATGCACGTAGATGGTTATATGAGAATAGGGAACACCGGGATCAGGGTACGTATCTGTATATCTACACTGTTCAGCAGTTTCGAGCATCACTGGAAGCGAGAATGCCTCCAAAAAACTCGACGATGGTGCCCTATATGAGTATTATGTCGCACGTTTGACTAACAGGACAATACGGACTCCATTTGTAGCGGAGACAAGTCCTCACAGTTGCGAACTCCTAAATCTTAACTACACTGAAATAGGGCGGATGGGTGCGCGACACTGAGAGGCTATCGCACGCCTGCAATGGCCAGCTGCGTCTATGGGCATACAAGTCCTCCTAAATCTTAACTGCGCTCCGTGCGCGCCGTTTCGAGGCTAATTTGTCGCGAACTCCTAAATTTTGTGCTCGCACGTAGACGTTTACTAGACGTGAGGCTAAGAAGATATTTGTCCACAGTTGACGATGGTGCCCTCAACAACATGTCGGCCGATAACCTAAATCTTAACTACACTGACCTGCAATGGCCAGCTGCGTCTATGGGCATACGAGGCTA???????GCGAACTATCCAGTGGTATATCGCTTCGATTTCGTCCTAAATAAGTCCTGTCATGA???????ACACTGAAAAACTCAATGGTGCCCTCTTAACT??????????????TCGCACGCTTAACTACACTGACTCCTTAGACCGTCCTTTCGACACAGTT??????????????GGATCAGGGTACGTATCTGTATATCTACACTG???????TCGCACGAAGTCCTTCGGCCGCGCCCCTCGCTGTGGAGGCTAATATGAGTATTATG???????GCGAACTCCTAAATATTTCGTCGGAGTGTAGGACTCCATTTGTAGCACAGTT??????????????GCATCAC??????????????GCGCTCCGTCGGCGTGGATTGCTTGTAT??????????????GGATCAGGGTACGTATCTGTATATCTACACTG???????CGCCCCTTGGATTGCTTGTATGCTCTCT??????????????TTTGTAGGTTTCGA???????TCTTCATAAGTCCTCGGAGACTTTGACCCAGTAGACGTATTTGTCCTTATGG???????GCGAACTGACTCCA???????CAATACGACACGCG???????GAGGCTAGCGCTCC???????GGATCAGGGTACGTATCTGTATATCTACACTG???????GCGAACTACACTGA???????CGCTGTGAACAGGA???????CGCCCCTCACAGTT???????ACACTGAAGAAGATAAAACTC?????AACTCTCGCACGGACGGGACTTAACT???????AGAAGATGCGCTCC???????CGGATGGCGCCCCT???????GCGAACTCACAGTT???????GGATCAGGGTACGTATCTGTATATCTACACTG???????GTCCCAGCACAGTT??????????????AATAGGG??????????????TTTGTGCAACAGCGCCTACGTGCTCTCTAAGTCCTCACAGTTATTTCGCCCTGCGAACTATCCAGTACACGCGAAACATCGCTCTCTGACGGGA???????CAACAACCCGTTTC???????TCGCACGAAGTCCTTTTGACTGGATCAGGGTACGTATCTGTATATCTACACTGAACAGGACCTAAATGAGGCTA???????GTCCCAGCGCTTCG???????TCGCACGACACGCGGATGGTTGACGGGACCGATAACCTAAATGAAG???????ATGTCGGTTTGTGCGAGGCTAATCCAGTAAGTCCTCGCTGTGCTCCTTATTTGACTCTCCTTAACACTGACTTAACTCCTAAATCCTGCAATGGCCAGCTGCGTCTATGGGCATACCTTAACTTCGGCCGCTTAACTCGCTTCG???????CGCTGTGCTCCTTAAACACCGCCGATAAAACAGCGGCACGTAGCACGTA???????GTGTAACAGGAAGCGAATTCGCACGAGCAGTTATGTCGGTTCAGCACGGAGACCGCCCCT???????GACGGGACCTAAATGTCGGCGCGCTGTGCCTGCAATGGCCAGCTGCGTCTATGGGCATACCTCCTTACACAGTTGCGAACTTTTGTGCGTGCGCGGCGCTCCTAGACGTCGGATGGGTGCGCGAACACCGGAGAATGCCTCCAACAATACGCACAGGTCCTGGTATATGACCGTCTGGAAGCTTCAGCAGTTTCGAAATAGGGAAAACTCAACAGCGCGGATGGAGAAGATATTTGTCAAGTCCTCGCTTCGCAACAACCCTGCAATGGCCAGCTGCGTCTATGGGCATACCCGTTTCGAGGCTATCGCACGGACGATGCCGTTTCAATAGGGCCTACGTCAACAACCCGTTTCGCATCACAAACATCGATGGTTCTTTCGA??????????TCGGCCGAGCGAATCCTACGTATATGAGAGCAGTTCGCTTCGAAACATC???????CAACAACGTGCCCTCTTTCGAACACTGAAATAGGGCCTGCAATGGCCAGCTGCGTCTATGGGCATACCGGATGGGGTATATGACCGTCATTTCGT??????????????GATGGTTCTTATGGTCTTCATTATTATGGAGAATGCCTCCAAGTCGGCGACACTTAACTTGGATTGGCTCTCTTGGAAGCATGTCGGGCACGTAGTCATGATGGAAGCAAAACTC???????GACTCCAGCGAACTCAATACGGTGCGCGCCTGCAATGGCCAGCTGCGTCTATGGGCATACTCGCACGAAGTCCTCACAGTTTTTGTAGCGGAGACTAGACGTGAGAATGCCTCCAAAGCGAATCCGATAAATCCAGTACACGCGCTTGTATGACGATG'
p488
aS'CCTCCAACGCTTCGCAACAACCCGTTTCGCTCTCTGACGGGATTTGTGCAGACCGTGCATATGATCATCATTTGTGCAGAAGATATTTGTCAGACCGTGCATATGATCATCACCTGCAATGGCCAGCTGCGTCTATGGGCATACGGAGTAT???????GCGAAGG???????GTCATGAGACGGGAGGAGTATCGGAGACGCGAAGGAGAAGATATTTGTCACACGCGAATAGGG???????CTCCTTAAGCGAATGCGACTTATGGCGCTGTG??????????????ATCCAGT??????????????CCTGCGATAGACGTAAAACTCGCTCTCTCTTATGGTCTTCATCCTGCGA??????????????CCTGCAATGGCCAGCTGCGTCTATGGGCATAC???????GCATCACGTTGAGGAGCAGTTAACACCGACACGCG???????AAGTCCTGTTGAGG???????AAACATCCCGATAA???????CCGTTTCCGCCCCTTCTTCATAGCGTTCAGCAGCGCTCCAATAGGGCGGATGGATGTCGGGATGGTTTGGAAGCGCCGGTTCACAGTTGCGAACTATCCAGTTTCAGCAGTTTCGAGCCGGTTATATGAGTATTATGGGATCAGGGTACGTATCTGTATATCTACACTGGTCATGATATTATGCAGTATGGCATCACATGTCGGCCGATAACCTAAATAAAACTCCAGTATGGAGAATGTAGACGTAAAACTCGTGCGCGATATGAGTATTATGGTACATATGAGGCATCACGTCATGACTTATGGCGGAGACCCTCCAAAGCGAATTAGACGTCTTAACTACACTGAAAAACTCATATGAGTATTATGATATGAGCTTATGGTCTTCATCCTGCAATGGCCAGCTGCGTCTATGGGCATACAGCAGTTGTCATGAGCATCACGACGATGTTCAGCATAGACGTGAGGCTA???????CGGAGACGCACGTA???????TTTGTAGTCTTCAT???????GTTTCGATATTATGAACACCAGTTTCGCACGCAACAAC???????AGCAGTTCCTACGT???????AACAGCGTCGCACG???????GACGATGAGCAGTTAACACCGGTGCCCTGTTTCGA???????AACACCGCCTGCAATGGCCAGCTGCGTCTATGGGCATACTTCAGCAGGATTGTTTCAGCAATTTCGT???????TCTTCATGTGCCCTGGATTGTGAGGCTACCTACGTATGTCGGAACAGCGAACACCGGTGCGCGCGCTTCGAAGTCCT?????ACGTACACAGTT???????CGGATGGTTCAGCAAGAAGATATTTGTCAAACATCTTTGTAGTTGCCGTATTTCGTTATTATG???????GACTCCA???????TTGCCGTGTTTCGACCTGCAATGGCCAGCTGCGTCTATGGGCATACGCATCACATATGAG???????TTTGTAGCGGAGACATATGAGGACTCCATTTGTAGGACTCCAGATGGTTTGGAAGCTTTGTGCGTTTCGAGCATCAC???????GCGAACTCCCT??????????????ATATGAGGCTCTCTGACGGGAGAGAATGGTGCCCTATTTCGTCGGAGACGTTTCGAGCATCACTAGACGT??????????????TATTATGCCTGCAATGGCCAGCTGCGTCTATGGGCATACGTCATGAAGCAGTT???????AAAACTCGTCATGATTCAGCATAGACGTCTTAACTGACGATGCCTCCAAAGAAGATACACGCGTATTATGCGCTGTG???????ACACTGAGAGA??????????????CTCCTTAATGTCGGATCCAGTATTTGTCCCGATAAGGATTGTACACTGACAGTATGAACACCGCTTATGG??????????????AACACCGTCGCACGCCTGCAATGGCCAGCTGCGTCTATGGGCATACAAGTCCTTTCAGCA??????????????TTTGTAGAGCAGTTGCCGGTTGACTCCATTGCCGTATCCAGTATTTCGTCCGATAACCGATAAAACACCG??????????????GAGCTTCAGCAATTTGTCTTCAGCA???????ATGTCGGGACTCCA???????GGAGTATTTTGTAG???????TCTTCATCGGAGACGTTTCGA???????GTTTCGACTTATGGGGATCAGGGTACGTATCTGTATATCTACACTGTCTTCATACACTGAGAGGCTAGCATCACGTCATGACTTATGG???????GCATATGATCATCA???????AGAAGATATTTGTCATGTCGGTTTGTGCAGAAGATGTACATATGAGGACGGGACCGATAAATCCAGTTTTGTGC??????????????AGACCGT?????????????????????ATATGAGTATTATGCTTAACTAGCAGTTAACACCGGGATCAGGGTACGTATCTGTATATCTACACTGTTCAGCAGCGAACTCCTAAATTCGCACG?????????????????????CCTGCGAGCGAAGG???????GCTCTCTGACGGGAACACGCGACACGCGGCTCTCTTATTATG??????????TCGCACGAGCAGTTATCCAGTGCTCTCTGTGCCCTACACGCGATGTCGGATTTCGTGTTGAGG???????GACTCCA???????AAGTCCTAACACCGCACAGTTGTTTCGAGGATCAGGGTACGTATCTGTATATCTACACTGGCATCACTCTTCATAGCAGTTCACAGTTGTGCCCTATTTCGT???????GACGATGGTGCCCTCCGATAAGCACGTAGACGATGGACGGGACTTATGGTCTTCATAAGTCCTAACAGGGCTACACAGTTCGCCCCTGTCATGATTTGTGCTTTGTGCAGCGAATATCCAGTCCTAAATAAAACTCTCGCACGGAGGCTAGACGATGGCGAACTTCTTCATCTTATGGATATGAGCCTGCAATGGCCAGCTGCGTCTATGGGCATACTATTATGGTCATGACTTATGGCCTAAATCTTAACTACACTGAAAGTCCTCACAGTTGCGAACTACACGCGGCTCTCTGACGGGAAGAAGATATTTGTCGCGCTCCGCGAACTCCTAAATCTTAACTTTTGTAGCGGAGACTAGACGT?????????????????????TTGCCGTGGATTGTTCGCACGCACAGTTGCGAACTCCTAAATGGATCAGGGTACGTATCTGTATATCTACACTGCTTAACTAAGTCCTAAGTCCTAAGTCCTTGGAAGCGGAGTAT???????CCTCCAA???????AAAACTCAAACATCGACTCCAACACTGAGACGCCTACGTATTTCGTGATGGTTTGGAAGCTATTATGAGCGAATGCACGTAATCATCAGAGAATGCCTCCAATCGCACGCACAGTTGCGAACTCCTGCAATGGCCAGCTGCGTCTATGGGCATACCCTAAATAGAAGATAAAACTCAGCGAATGTCATGAGCATATGAACAGCGCCTACGTATATGAGGAGAATGGAGGCTAGTGCCCTAAACATC???????????GACGATGTCGCACGAAGTCCTGCATCACAAACATCGATGGTTAGACCGTCTTATGGTCTTCATTAGACGTATTTGTCTCGCACGCCTGCAATGGCCAGCTGCGTCTATGGGCATACAAGTCCTTTTGTAGCGGAGACAGCAGTTCCTGCGAGCGAAGGTGGAAGCTTCAGCAGTTTCGACACAGTT?????????????????????GCATCTTCGA?????????????????????GCGAACTCCTAAATAACACCGGAGAATGCCTCCAAGTTGAGGAACACCGTTCAGCAGACTCCACACAGTTGCGAACTGGATCAGGGTACGTATCTGTATATCTACACTGCCTAAATACACTGAATTTCGTGTTTCGAGACGATGGCCGGTTAGCGAATAAACATCAGCAGTTCTTAACTAGCGAAT???????AACAGCGTGGAATGGTTCCTACGTACACTGACCTCCAAACACTGAAACAGCGCCTACGTGCACGTAGCACGTAGCACGTAGCATCACTTTGTGCCTTAACTCTTAACTGGATCAGGGTACGTATCTGTATATCTACACTGACACTGAGAGGCTAGACGGGAATATGAGGCGAACTAGCGAATAACAGCG???????GCACGTAGAGGCTAAAGTCCTCTTAACTAAACATCGTCATGGCTAGATGGTTCCTACGTTCGCACGTCGCACGGAGAATG???????CCTACGTGATGGTTCACAGTTTATTATGTCGCACGACACTGAGAGGCTAGGATCAGGGTACGTATCTGTATATCTACACTGGACGATGGTGCCCT?????????????????????AAACATCAAACATCGATGGTTTGGAAGCAAGTCCTCACAGTTAACAGCGTGGAAGCGAGAATGCTTAATAAATCCTCCAAACACTGAGAGGCTAGCGAACTAAACATCGATGGTTTGGAAGCAACAGCGCCTACGT?????????????????????ATTTCGTGGATCAGGGTACGTATCTGTATATCTACACTGGACTCCAACACGCG??????????????GAGAATGAAAACTCGAGAATGCCTCCAACCTACGTCCTAAATGCGAACTCTTAACTAGCGAATGC??CTTATGGCCTAAATCCTAAATCACAGTTAACAGCGAGCGAAT???????TAGACGTCCTCCAACCTAAAT???????GCTCTCTTCGCACGCCTGCAATGGCCAGCTGCGTCTATGGGCATACAAGTCCTGACGATG???????CTTAACT???????CGGAGACAACAGCGCTTATGGGCACGTAGCGAACT???????GCGAACTTCTTCATAGCGGAGAATGCACAGTT???????GCACGTAAGCGAATTCTTCATGATGGTTTTTGTAGCAGTATGGTGCCCT???????GTGCCCTGAGGCTACCTGCAATGGCCAGCTGCGTCTATGGGCATACTCGCACGACACTGAGAGGCTAATTTCGTATTTCGTGACTCCATGGAAGCGAGAATGCCTCCAATCGCACGTCGCACGAAGTCCTCCTCCAAGCATCTTCGAAGCGAATGCACGTAGAGGCTAAAGTCCTCACAGTTTGGAAGCGAGAATGCCTCCAAGTGCCCTGACTCCATTTGTAGCTTAACTAAGTCCTCACAGTTCCTGCAATGGCCAGCTGCGTCTATGGGCATACGCGAACTGCGAACTCCTAAATCGGAGACGAGGCTAGACGATGAGCGAATAAACATCGATGGTTGCGAACTCTTAACTACACTGAAACAGCGAACACCAGTTCCTACGT???????CCTAAATCCTAAATGTCATGACCTACGTGCACGTA???????ACACTGATAGACGTAAAACTCCACAGTTCCTAAATCCTGCAATGGCCAGCTGCGTCTATGGGCATACCTTAACTCGGAGACTAGACGTAAAACTC??????????????AACAGCGAGCGAATGCACGTACTTAACTACACTGAGAGGCTAAAACATCGTCATACGTAGATGGTTCACAGTTCTTAACTACACTGAGAGAATGCCTCCAACCTACGTTGGAAGC???????AACAGCGATCCAGTTTTGTAGACACTGAGGATCAGGGTACGTATCTGTATATCTACACTGGAGGCTAATGTCGGCCGATAACCTACGTAAACATCGATGGTTAAACATCGATGGTTTGGAAGCGAGGCTATCGCACGAAGTCCTTGGAAGCGAGAATG'
p489
aS'CCTCCAACTTATGGTCTTCATAGCAGTT??????????????GACGATGGTGCGCG??????????????GTTGAGGCCTGCGAGCGAAGGTCGCACGAAGTCCTCACAGTTCCTGCAATGGCCAGCTGCGTCTATGGGCATACGCGAACTCAATACGGAGGCTAAGACCGTATTTCGTGCCGGTT???????TCGCACGCGGATGGGTGCCCTGACTCCA???????AACACCGAGCAGTTGTCATGAAGCGAATTTACTAGACGTTATTATGAACACCGTTCAGCA???????TTTGTAGCGGAGACAATAGGGAAGTCCTCACAGTTCAGTATGGACTCCATTTGTAGACACTGAGGTATATGACCGTCGGATCAGGGTACGTATCTGTATATCTACACTGCTTTCGATTTGTGCCTTAACTCGGAGACTCGCACGAAAACTCGCGAACTCCTCCAACCGTTTCTAGACGTTAGACGT???????GTTTCGAAACAGGAATATGAGAAAACTCTGATGTCCCAGGCATCACCAATACGGGTATAT???????AAAACTCGTCCCAGCAACAACAGCGAATGCACGTATAGACGTAAGTCCTCACAGTTCCTAAATAGAAGATATTTGTCGGATCAGGGTACGTATCTGTATATCTACACTGTCGCACGCACAGTTGCGAACTGCGAACTTTTGTAGCGGAGACGACGATGCTCCTTACGCTTCGTTTGACT??????????????GACCGTCTTCAGCAGTTTCGATTGACAATACGAACACCGCTTTCGATCGGCCG???????AACAGGACAATACGCGCTGTGGTGCCCTATTTCGTGACTCCACCTAAATCTTAACTAAGTCCTAAGTCCTCACAGTTGGATCAGGGTACGTATCTGTATATCTACACTGGCGAACTGTCGGCGTCGCACGACACTGAAAAACTCATTTCGTGACTCCACTTAACTCGCCCCTGGTATATCAGTATGGAGGCTAGTCGGCGATATGAGAGCAGTTGGTATATCCGATGTCGGGACCGTCTTTGACTGCATCACTGGATTGCGGAGACAAAACTCGACCGTCGAGAATGCCTAAATTTTGTAGAAAACTCTAGACGTGAGGCTAGACGGGATCGGCCGCCTAAATCCTGCAATGGCCAGCTGCGTCTATGGGCATACCTTAACTCTTAACTGCTCTCT???????ATCATCATAGACGTCGGAGAC???????TGGAAGCCTTTCGAGACTCCATTTGTAGCTTGTATGTTTCGAGTCCCAGCTTTCGA?????ACGTATCGGCCGTCTTCATTTCAGCATCGCACGATTTCGTATTTCGTTCGGCCGAAAACTC???????TAGACGTGTGCCCTGCATATG???????AACAGGACCTAAATACACTGAGGATCAGGGTACGTATCTGTATATCTACACTGGAGGCTAATGTCGGTTTGACT??????????????GACGATGAAAACTCGACGATGTAGACGTGTCGGCGTGGATTGGTGCCCTAAGTCCTCACAGTTCTTATGGGTCGGCGTGATGTGCGCGGTCATGAGCGAACTGCACGTAGACGATGCTTGTATTTTGTAGCGGAGACGTGCCCTTTGCCGTGGATTGT??????????????GTCCCAGCCGATAAGGATCAGGGTACGTATCTGTATATCTACACTGATCCAGTATCCAGT??????????????TTTGTAGGGAGTATATTTCGTAAACATCGACTCCATCGCACGATTTCGTAGCGAATCCTAAAT???????CGGATGGCAGTATGGAGA???????AATAGGG???????GCATCACCCTCCAAGACTCCATTTGTAGATTTCGTGATGGTTGACGATGATCATCACGGAGACGGAGTAT???????ACACGCGACACTGAGGATCAGGGTACGTATCTGTATATCTACACTGGAGGCTAAGAAGAT???????TTGCCGTGACGATGGCATATGGTGCCCTAAAACTCGTGCCCTCGGAGACCTTAACTGAGAATGATATGAGCTTATGGCCGTTTC???????AGTGATCCAGTCAACAACTCTTCATTATTATGTGGAAGCACACTGAGCCGGTTGACGATGGCGCTCCACACTGAAGACCGTGTGCCCTTCGCACG???????ATTTGTCTGGATTGGGATCAGGGTACGTATCTGTATATCTACACTGCTTGTAT??????????????AAGTCCTCCTGCGAGCGAAGGGAGGCTATAGACGTAAAACTCGTTGAGGAAACATCGATGGTT???????CTCCTTACGCTTCGACCTGACGGGACGCTGTG??????????????CCTACGTCCTGCGAGCGAAGGCGGAGACGACGATGGTGCCCTGTTGAGGCACAGTTGCGAACT???????TCGCACGAAGTCCTCCTGCAATGGCCAGCTGCGTCTATGGGCATACCACAGTT??????????????CCTAAATCAGTATGGCCGGTTATTTCGTGACTCCATTTGTAGAGACCGTAAAACTCAACAGCG???????GCGCTCCCGCCCCTTTTGTGC??????????AGAAGATGTCATGATATTATG???????CCTAAATTAGACGTGCATATGTAGACGTATTTCGTGACTCCA???????GGATTGTCTTAACTTTTGTGC???????GCGAACTGGATCAGGGTACGTATCTGTATATCTACACTGCCTAAATGCTCTCTGACGGGAACACTGA??????????????TTTGTAGTTTGTAGCGGAGACATCATCACACAGTTGCGAACT???????ACACTGAGAGGCTAATTTGTCGTTGACGGTTGTCCCAG???????CTTAACT???????GTGCCCTAAGTCCTGGAGTATCCTACGTGACTCCACGGAGACGACTCCA???????GAGGCTACCGATAAACACGCGCTTAACTCCTGCAATGGCCAGCTGCGTCTATGGGCATACACACTGAGAGGCTAATGTCGGGACGATGGTGCCCTATTTCGTTAGACGTAAAACTCAACAGCGTTGCCGTGGATTGTGACGATG?????????????????????TTTGACTAACAGGACAATACGGACGGGATTTGTGCAGAAGAT??????????????????????????????????????????AGCGAATGCACGTACAGTATGGGATCAGGGTACGTATCTGTATATCTACACTGGCCGGTT???????CCTCCAA???????TTTGTAG??????????????TTCAGCA???????ATTTGTCCTTATGGGCTCTCTGGTATATGCGGCCTGCGAACACGCGTCTTCATAGCAGTT???????GTTTCGAGCATCAC???????CGGAGACTAGACGTGAGAATG??????????????CCTGCAATGGCCAGCTGCGTCTATGGGCATAC???????TGGATTGTGGAAGCAAAACTCGAGGCTA???????ATATGAGCCGTTTC???????AACACCGGACTCCAATCCAGTGCGAAGG???????????CCGATAATTTGTAGCGGAGAC???????AATAGGGCGGATGG???????GTCCCAGTTTGACTGATGGTTCTTGTATTCGCACGGGATCAGGGTACGTATCTGTATATCTACACTGAAGTCCTCCTACGTAAACATCAACAGGACTTGTAT???????GTGCGCGATTTGTC???????TAGACGTAAAACTCATGTCGG???????GCTCTACGCG??????????????TAGACGTAAAACTCGTCATGAAGAAGATGTCATGACTTATGGTGGATTGCAATACGGGTATATAACAGCGCACAGTTGCGAACTCCTGCAATGGCCAGCTGCGTCTATGGGCATACCCTAAATTCGCACGGGATTGTGACCGTCTTTGACTGTCGGCGTCTTCATGTCCCAGTTTGTGCCTTATGGGTTTCGACGGAGAC???????GCATAACCGT???????ATTTCGTTTCAGCATCTTCATCAACAACTATTATGAGCAGTTACACTGAGTCCCAGCTTTCGAGTCGGCG???????CTTAACTCCTGCAATGGCCAGCTGCGTCTATGGGCATACACACTGACCTGCGATCGGCCGTCGGCCG???????CTTAACTAACACCG???????CGCTTCGAGCAGTT???????GTGCCCT???????CTTTCCCGTC???????GTCATGA???????AACACCGAACACCG???????TTCAGCAGACTCCA???????GTCGGCG???????GTTGAGGGAGGCTACCTGCAATGGCCAGCTGCGTCTATGGGCATACCAGTATGGCCGGTT???????TGGATTGCTTGTATATTTCGTGTTTCGAGCATCACAGCAGTTTTCAGCAGTTTCGAAAAACTCGACGATGGTGCCCTCTTGTGATTGATTTCGTCGGAGACTAGACGTGCATCACCTTATGGTCTTCATATATGAGGACGATGGTGCCCTGTCCCAG??????????????GTTGAGGCCTGCAATGGCCAGCTGCGTCTATGGGCATACCCTGCGAGACCGTC???????TTTGACTGCGAACTGTGCGCGTATTATGCGCTGTGGTCATGAATATGAGGTGCGCGTTTGTAGGACTCCAGC??TCGGCCGGACTCCAGACGATG???????GCACGTACTCCTTA???????CGGATGGCCTAAAT??????????????CTTTCGAGCGAAGGGGATCAGGGTACGTATCTGTATATCTACACTGAGACCGTGGAGTAT??????????????CTTTCGAAATAGGG???????GCTCTCTAGCGAAT???????GACTCCAATTTCGTGTCGGCGATAAATCATCAGTGCCCTTTTGTAGGCATCACCCTCCAAGACGGGATTTGACTCCGTTTCTCGGCCGAACAGGA???????TTGCCGTAAGTCCTCCTGCAATGGCCAGCTGCGTCTATGGGCATACCACAGTTGGATTGT???????CAATACGCGCTTCGCAACAACAACAGGATGGAAGCGAGAATGATATGAG???????GACGATGGGAGTATAACAGTGACTTTGCCGTGGATTGT???????TATTATGGCGCTCCGATGGTTCAATACGGGTATATCTCCTTAGGTATATGACCGTCTTGCCGTGCGAACTCCTAAATGGATCAGGGTACGTATCTGTATATCTACACTGCTTAACTATCATCAGGAGTATCTTTCGACGCCCCTCGCTGTGGACCGTCCCTACGTAAACATCCGCCCCT??????????????AACAGCGCTTGTGATTGCCTACGTATTTCGT???????CGCTGTGACACGCGAACAGCGCTTTCGAGACCGTCGCGCTCCTCGGCCGATCATCAGCATATGACACTGACCTGCAATGGCCAGCTGCGTCTATGGGCATACGAGGCTAAGACCGTGCATATGGTCGGCGCAATACGGGTATATTCGGCCGCCGATAAATCCAGTCTCCTTAGACGATGGTGCCCTAAACATCCGGAGTGTAGGATGGTTCGGATGGTATTATGCGCTTCGCGCCCCTATGTCGGGTCGGCGCACAGTTAACAGGATGGATTGGGTATATGCGAAGGGTCCCAGCCTGCAATGGCCAGCTGCGTCTATGGGCATACTTTGACTAACAGGACAATACGCTTGTATTCGCACGAAGTCCTTGGATTGCTTGTATGCGCTCCCAACAACCCGTTTCAATAGGGTGGAAGCGAGAATG'
p490
aS'AACAGCGAACAGCGCCTACGTAAACATC?????????????????????CTTATGGTCTTCATAGCAGTT?????????????????????GCGAAGGAGACCGTGCATATGCCTGCAATGGCCAGCTGCGTCTATGGGCATACATCATCAGGTATATCCTGCGA???????GAGAATG???????AACACCGCAATACGGTCATGA???????CCGATAA???????GATGGTTGACGGGAGCACGTACCTACGTGAGCGAGAATGAGCGAATTTTGTGCAGAAGAT???????ATCCAGTACACGCG???????GGTATATGACCGTC???????CCTCCAAAGCGAATGTTGAGGGACCGTCCTTTCGACCTGCAATGGCCAGCTGCGTCTATGGGCATACTCGGCCGAGAAGATGCCGGTTGCACGTAGCATCAC???????CTTTCGAAACACCG???????GCTCTCTACACTGA???????ATTTGTCATTTGTCCCTCCAACCTCCAAAGTAGTCCCAGGAGAATGATGTCGGCCGATAA???????GAGGCTAGTCCCAG???????TTCAGCAGTTTCGA???????ATATGAGTATTATGCAGTATGATTTGTCTCGCACGGGATCAGGGTACGTATCTGTATATCTACACTGAAGTCCT??????????????GTCCCAGCGGATGGGTGCGCGGCATCAC??????????????TTTGACTTTGCCGTGGATTGTATCCAGTGATGGTTTGGAAGCTTGACAATACGAAACATCACACGCGGCTCTCTGGAGTATAACAGGACAATACG???????ATATGAGTATTATGAATAGGGTTTGACTAACAGGA???????CACAGTTGCGAACTCCTGCAATGGCCAGCTGCGTCTATGGGCATACCCTAAATTGGATTG???????CAATACGTTTGACTCCGTTTCAACAGCGGTCGGCG???????GGTATATTTTGTGCATCATCAGACGGGA???????CCTACGTGGTATATGCACGCGAATGACCGTCAGAAGAT???????TTTGTGCCTTAACTGACGGGAGACCGTCAGCAGTTTCGGCCGCCTACGTGTTTCGAGTCCCAGGGTATATTTTGTGCGTCGGCGCTTAACTCCTGCAATGGCCAGCTGCGTCTATGGGCATACACACTGATTGCCGTGACGGGAGACCGTC???????TTCAGCAAAACATCGTTTCGATCTTCATCTTTCGA???????CCTAAATAGAAGATGAGAATGTTTGTGCCTTTCGAGATGGACATCTCGGCCGGCTCTCTTGGAAGCATTTGTCATGTCGG???????TCGGCCGAACAGGATTCAGCAGATGGTTTGGAAGC???????CTTTCGACAATACGGGAGTATGAGGCTACCTGCAATGGCCAGCTGCGTCTATGGGCATAC??????????????AACAGGATCGGCCGGTCGGCGGATGGTTTGGAAGCGAGAATGTTTGACTGTCGGCGTGGATTGCTTGTATAACAGCGCCTACGTACACGCGGTCGGCGTGATCCGATAAATCCAGTAAACATCGTCGGCGTGGATTGCTTGTATTATTATGGTCCCAGCCTCCAACCTACGTAAACATCTGGATTGGTCCCAGTTTGACT???????GGATCAGGGTACGTATCTGTATATCTACACTG???????ACACGCGGGATTGTCTTGTATAGCAGTTAACAGCGAGCGAATGTCATGAATATGAGCAGTATGCACAGTTTCGGCCGGATGGTTGCTCTCTATGTCGGAACAGCGGAGCTGGAAGCGAGGCTAGACGGGACCTCCAACTTTCGAGCGAACT???????GCATCACCTTATGGGCATCACGAGGCTAAACACCG???????TTGCCGTGCTCTCTGGATTGTGGATCAGGGTACGTATCTGTATATCTACACTGCAGTATG???????GGAGTAT???????CGCTTCGACACTGAATATGAG???????GTTTCGA???????AGACCGTGACCGTCAGCGAATGCACGTAACACTGAGAGAATGGAAA???????CTTAACTAACAGCG???????GGTATATGCATATGAGAAGATTTCAGCA???????TGGATTGCTTAACTCAACAACAACAGGAATCATCA???????CTTGTATGGATCAGGGTACGTATCTGTATATCTACACTGGACGATGAGACCGTGCATATGCAATACGGCGAACTCCTAAATCTTGTATAGCAGTTAACACCGATTTGTCAACAGGACAATACG???????GCGAACTCCTAAAT???????????CACAGTT??????????????TTTGACTTCGCACGAAGTCCTTCTTCATGTCATGACTTATGGCACAGTTGGTATATGACCGTCGCGAAGGGTGCCCTATTTCGTGGATCAGGGTACGTATCTGTATATCTACACTGGACTCCAGTTGAGGCCTGCGACTTTCGATCGCACGAAGTCCTTCTTCATGTCATGACTTATGGCACAGTT???????GTCCCAG???????TCGCACGAAGTCCT???????AGCGATCCAA???????AGCGAATGCACGTA???????GCGAAGG???????GCGAACT???????TATTATGAGCAGTTCTCCTTA???????TCGGCCG???????GCCGGTTTTTGTAGCCTGCAATGGCCAGCTGCGTCTATGGGCATACCGGAGAC??????????????GTCGGCGCGCCCCTCGCTGTGAACACCG??????????????CCTAAATGTTGAGGCCTGCGA???????GAGAATGCCTCCAA???????AAACATACGT???????ACACGCGTGGAAGC???????AAGTCCTGCCGGTTCTTAACTTATTATGGCACGTATTCAGCATCTTCATGCGCTCCTGGATTGATCCAGT???????TAGACGTCCTGCAATGGCCAGCTGCGTCTATGGGCATACAAAACTCATGTCGGCCGATAACTTGTATGTCATGACTTATGGGTTTCGAGCATCACATATGAGACACTGAGAGGCTATCGCACGATGTCGGCCGATAAATCCAGT???????AACAGCGCCTACGTACACTGAGAGGCTAGTCATGAGCGAACTCCTAAATCTTAACT??????????????TCGCACGCGGAGACTAGACGTAAAACTCCCTGCAATGGCCAGCTGCGTCTATGGGCATAC???????TAGACGTTTTGTAGAAGTCCTGCGAACT???????ACACTGAGAGGCTACACAGTTCTTATGGCTTGTATCTTAACTAAACATCCCTCGATGGTTCCTAAAT??????????????AAGTCCTGTCCCAGTTTGACT???????CCTAAATCTTAACTGACTCCAAAAACTCGCGCTCCCCTGCAATGGCCAGCTGCGTCTATGGGCATACCGCCCCTGTGCCCTATTTCGTACACTGAATATGAG???????AACAGGAGGATTGTTCGCACG???????GTCGGCGGCGAACTTGGAAGCCCATGCACGTACACAGTTTGGATTGCTTGTATGAGGCTAGACGATGGTGCCCT???????TATTATGGACGATGGTGCCCTATTTCGTGACTCCACCTGCAATGGCCAGCTGCGTCTATGGGCATACTTTGTAGGAGGCTAGACGATGGTGCCCT??????????????ATTTCGTCTTAACTACACTGAGTCCCAGTCGCACGAAGTCCTTCGCACG??????????AAGTCCTCACAGTTGAGGCTATTTGACTAACAGGACCTAAATGACTCCATTTGTAG???????ATTTCGTGACTCCAACACTGACGGAGACTAGACGTCCTGCAATGGCCAGCTGCGTCTATGGGCATACAAAACTCCTCCTTACTTAACTTTTGTAGATGTCGG???????CGGAGACGGTATATGCGAACTCAATACG???????ACACTGAGCGAACTCCTCCGAATGCCTAAATTCGGCCG???????GGTATATTTGCCGTCAATACGTAGACGTGCATCACGAGGCTACGGAGACGACGATGCGCTGTGGACGATGGGATCAGGGTACGTATCTGTATATCTACACTGGTGCCCT???????GCACGTATAGACGTGCGAACTGTTTCGAAAAACTC???????GGAGTATGACCGTCAGCAGTTCTTTCGACTTAACTTGGAATGGTTACACTGATGGATTGTCTTCATCTTTCGAACACTGAGAGGCTAGACGATGCACAGTTCACAGTTAAAACTCCGGAGAC???????ATTTCGTCCTGCAATGGCCAGCTGCGTCTATGGGCATACGACTCCATTTGTAGTTTGTAGGCGCTCCCGCCCCTAAGTCCTGTGCCCTATTTCGTCTTAACTTCGGCCGGTCGGCGGTCGGCGGAGGCTAAACAGCGCTTGTGATTGCCTACGTCTTTCGATCGGCCGTGGATTGGCGAACTCCTAAATGACTCCAGCACGTATCGCACGCGCTGTGATTTCGTGACTCCACGGAGACCCTGCAATGGCCAGCTGCGTCTATGGGCATACTAGACGTCCTCCAAGTGCCCTCTCCTTAAACACCGAGCGAATTTTGTAGGCATATGCACAGTTCTTGTATGGTATATGACCGTCAAACATCAATTGAGAATGGGTATATGACCGTCAACACCGAAGTCCTATCATCA???????CCTCCAATTCAGCACCTAAATGACGATGAGCGAAT???????GGATCAGGGTACGTATCTGTATATCTACACTG???????GCGAACTAAAACTCCTTAACTCGGATGGGAGAATG???????AAGTCCTTCGCACGTTCAGCACCTAAATCAATACGCCTCCAAAGTAAGCGAATAACAGGACTTAACT??????????????CACAGTTGACCGTCTGGAAGCGTGCGCGCCGATAATAGACGTCCTAAATCGCTTCGGGATCAGGGTACGTATCTGTATATCTACACTGCAACAACTTTGTAGCGGAGACATCCAGTAAACATCGATGGTTCTTTCGA?????????????????????GTCCCAGTTTGACTGCACGTAAACAGTGACTTCGCACGAAGTCCTTATTATG?????????????????????TCGGCCGGTCGGCGCCTACGTACACGCGGCTCTCTGACTCCACCGTTTCAATAGGGCCTGCAATGGCCAGCTGCGTCTATGGGCATACCGGATGGGTGCCCTATTTCGTGACGGGAGAGGCTAAACAGCGTGGATTG?????????????????????GCATCACATATGAGCACAGTTGCACGCGAATGCGAACTGCGAACTGTTTCGA???????TCGCACG???????CTTGTATAATAGGGACACTGATTTGTGCCACAGTTGACGATGGTGCGCGCCTGCAATGGCCAGCTGCGTCTATGGGCATACAACAGCGTCGCACGAAGTCCTAGAAGATCAACAACCCGTTTCCAGTATGTAGACGTAAAACTC???????AAGTCCTCACAGTTCCTAAATTGGAATGGTTCTTAACTCAATACGTCGCACG???????AGACCGTCGGAGACGCCGGTTAGCAGTTCGCTTCGATTTGTCGAGAATGAAAACTCCCTACGTCCTGCAATGGCCAGCTGCGTCTATGGGCATACAAACATCGATGGTTTGGAAGCGTCATGACTTATGGTCTTCATGTTGAGGCCTGCGAGCGAAGGGTCCCAGTTTGACTAACAGGAACACTGAGAGGCTA'
p491
aS'AAACATC?????????????????????GGAGTATTTGCCGTGGATTGTCAACAACCCGTTTCAATAGGGGTGCCCTATTTCGTGACTCCAAGAAGATATTTGTCATGTCGGGGATCAGGGTACGTATCTGTATATCTACACTGCCGATAAGTCCCAGTTTGTGCTTTGTAGAGACCGTGACGATGCGGATGGGGAGTATCGCTTCGATGTCGGCTTATGGATCATCA???????AATAGGG???????GATGGTT??????????????????CGGATGGGTGCGCGGCATATGTCTTCATAGCAGTTCTCCTTATTGCCGTGGATTGTGAGGCTAGCATATGATCATCAGACGGGATTTGACTAACAGGACCTGCAATGGCCAGCTGCGTCTATGGGCATACCAATACGTCTTCATGCTCTCTGGAGTATCTTAACTACACTGAAACAGCG???????CGCTGTGAACACCGAACACCGAGACCGTCAGTATGCAGTATG??????????????GGCGCCTACGT???????GCCGGTTGTTGAGGGCGAAGGTTCAGCAGTTTCGACGCCCCT??????????????CTTAACTACACTGAGAGGCTAACACGCGAGCAGTTAACACCGGGATCAGGGTACGTATCTGTATATCTACACTGTTCAGCACCGATAAATCCAGTTCGCACGGCGAACTCCTAAAT???????GGATTGTGCGCTCCGCATCACGTTGAGGCCTGCGACCTGCGA??????????????AATTTGGAAGC???????GCGAAGGAGACCGTGCCGGTTATATGAGTATTATGTTGCCGTGACGATGGTGCCCTCACAGTTAAGTCCTCACAGTTATGTCGGGTTTCGAGCATCACGGATCAGGGTACGTATCTGTATATCTACACTGATATGAGGACCGTC???????GCGAACTGGATTGTAAGTCCTATTTCGTAAACATCGGAGTAT???????GTTTCGACAGTATGGCATATGGTTGAGG???????GAGAATGAAGTCGCACGCCTCCAAGAGGCTAGCCGGTTATCATCAAGCAGTTTTCAGCA??????????????CCTACGTGACTCCACCTAAATTTGCCGTCCTAAATCTTATGGGGTATATTATTATGCCTGCAATGGCCAGCTGCGTCTATGGGCATAC???????ACACGCGGTCATGACTTAACTTAGACGTGCGAACTTTTGTAGATGTCGG??????????????ATCCAGTTCTTCATGGAGTAT???????ACACTGAAGCGAATGAGAAGAAGCGCACGTACCGTTTC???????TTGCCGTGTCATGACCGATAA???????ATCATCAGTGCGCGCGGAGACGCGAAGGCGGAGACACACTGACTTGTATATCCAGT???????GGATCAGGGTACGTATCTGTATATCTACACTG??????????????TGGATTGGAGGCTATCGCACGCCTGCGATAGACGTAAAACTCGCATATG??????????????ATTTGTCGGATTGTAACAGCGCAACAACGTCATGACTATCTCCTTACGCTTCGCCTACGTTTTGTGCAGAAGAT???????GCGAAGGAGACCGTCAGTATGGCCGGTTGTTGAGGAAGTCCTTCGGCCGGTCGGCG???????CCTGCAATGGCCAGCTGCGTCTATGGGCATAC???????AGCGAATCTTTCGACACAGTTAAGTCCTCAGTATGGCCGGTT???????CCTGCGA???????GTCATGAGACGGGAAAACATCCCTAAATCGCTGTGAGCAGTTGCCACCTCCAACGCCCCTCTTAACTAACAGCGGCTCTCTCTTATGGACACGCGGTTGAGG???????CCGATAAGTGCGCGCACAGTTAAAACTCGACCGTCGCACGTAGCTCTCTCCTGCAATGGCCAGCTGCGTCTATGGGCATACGACGGGA???????GGTATATGCGCTCCGAGGCTACGGATGGATCCAGTGCATATGGCCGGTTGCTCTCT???????ACACGCGCCTACGTAGCGAATGCGCTCCAGCGAATATTGCACAGTTGCACGTAGCACGTACCTGCGAATCCAGT???????GCATCACCAGTATGATCATCAGATGGTTAATAGGGTCGCACG???????CAATACG???????CTTTCGAGGATCAGGGTACGTATCTGTATATCTACACTGTCGGCCGTTTGACTAACAGGA???????CAACAACCCGTTTCTGGAAGCAGAAGATATTTGTCATATGAGATGTCGGCCGATAAGCGAAGGCCTCCAAAGCGAATGCATCTTAACTGAGAATGAGACCGTGCATATGATTTGTCTATTATGATGTCGGTTTGTGCGAGAATGCCTCCAACGCTTCG??????????????GTCCCAGGTCGGCGTGGATTGGGATCAGGGTACGTATCTGTATATCTACACTGCTTGTATAGAAGATATTTGTC???????CGCTGTGCTCCTTAAGCGAATGCTCTCTGACGGGACCGATAATTTGTGCAGAAGATATCATCAGATGGTTTGGAAGCACACTGAGACGAACGTAGAGGCTACCTCCAAAAACATCGGAGTAT???????GACGGGAATCCAGTAGACCGTACACGCGGCACGTAACACTGACGCCCCT??????????????TTTGTGCAACAGCGCCTGCAATGGCCAGCTGCGTCTATGGGCATACCCTACGT?????????????????????CCTAAATCTTAACT???????CCTGCGAGCGAAGGACACGCG??????????????TTGCCGTTGGAAGCGAGAATGCAGTATGTTCAGCACCGGCCGGTTGCGAACTGATGGTTGGATTGTATTTGTC???????GCTCTCT???????GTTGAGG???????TCGCACGGCGAACT???????CCTCCAA???????AAACATCGGATCAGGGTACGTATCTGTATATCTACACTGGATGGTTTGGAAGCGAGAATG??????????????????????????????????????????GACGGGATTTGTGCAGAAGATTCGCACGAAGTCCTCACAGTTGTTGAGGCCTGCGAGCGAAGGGACTCCATTTGTAGCGGAGACTGGAAGCGAGAATGCCTCCAAATTTCGTGACTCCATTTGTAGTAGACGTAAAACTCGACGATGGGATCAGGGTACGTATCTGTATATCTACACTGGTGCCCTCAATACGCGGAGACCGGAGACGACGATGGTGCCCTAGCGAAT???????GATGGTTTAGACGTCTTATGGATTTCGTAGACCGTAACAGTTTCGAGTGCCCTTCTTCATAGCAGTTAAACATC??????????????GACGATGGTGCCCTATTTCGTTTTGTAGGGTATATGACCGTCGGATCAGGGTACGTATCTGTATATCTACACTGCTTTCGAGCATATGGACTCCAGACTCCAGACGATGGCACGTA???????CCTAAATCCTACGTAACACCGGACTCCAGACGATGGCATCACGCTGGTGCCCTGGATTGTTTTGTAGCGGAGACAACAGCGCTTAACTACACTGAAGCGAATGTGCCCTATTTCGTATTTCGTATCATCAGGAGTATGGATCAGGGTACGTATCTGTATATCTACACTGTTGCCGTGACGATGGTGCCCTGACTCCAGAGAATGCCTCCAAGAGGCTAAGAAGATATTTGTCTAGACGTGGAGTATTTGCCGTATTTCGTCCTAAGAACTGACTCCATTTGTAGATCATCAAAAACTC???????TTTGTGCGTCCCAGTTTGACTTGGAAGCTTTGTAGCGGAGACAAAACTCGGATTGT???????CCTGCAATGGCCAGCTGCGTCTATGGGCATAC???????GTCGGCGTAGACGTTAGACGTCGGAGACGATGGTTAACAGGA???????GACGGGA???????GTTTCGAGCATATGCGGAGACTATTAATGAGTAGACGTATTTCGTTTCAGCA???????GCGAACT???????CAATACGATTTGTCTTTGTAGAAAACTCAGACCGTTCGGCCG???????GGATCAGGGTACGTATCTGTATATCTACACTG???????GACTCCAGCGAAGGATGTCGGAAAACTCAGAAGATGGTATATAACAGCGCACAGTT???????GACGATGGTGCCCTAAAACTCATCATATATG???????GTCATGAAAAACTC???????GAGGCTAGCACGTAGACCGTCAAAACTCTAGACGTCCGATAAAACAGGAATTTCGT???????GGATCAGGGTACGTATCTGTATATCTACACTG??????????????TTTGACTATCCAGTACACGCGTAGACGTCTTTCGATCGGCCGACACTGA??????????????AAAACTC??????????????TCTTCTATGG???????CGGAGACTAGACGT???????CCTAAATCTTAACTGTCGGCGTTTGTAGCGGAGACGCTCTCTATTTGTCGTCCCAG???????GGATCAGGGTACGTATCTGTATATCTACACTG???????GTTGAGGAGAAGATGACGGGAGACGGGAGACTCCATGGATTGTCGCACGGCGAACT???????GTGCGCGTTTGTAG???????TGTGGGAGTATGACTCCAGACGATGGTGCCCTCACAGTTAAGTCCTCCTACGTATTTCGTTTTGTGCGACGATGTTTGTGCCCTGCGATTTGTAGCCTGCAATGGCCAGCTGCGTCTATGGGCATACCGGAGACTTTGTAGGACGGGAGTGCCCTCCTACGTGTGCCCTAAACATCACACGCGAAGTCCTATTTCGTGCGAAGGATTTCGTTTGCCGTTCCTGACGATGGTGCCCTAGACCGTGCATCACTCGCACGGCTCTCT???????GACGATGAAACATCTAGACGTGCTCTCTCGGAGACTGGATTGGGATCAGGGTACGTATCTGTATATCTACACTGCTTGTATATCCAGTACACGCGAAAACTCTAGACGTAAAACTC???????AGCGAATGCACGTAATATGAGAAAACTCGACGATGGTGCCCTGATGGACATCATTTCGTGACTCCATAGACGTTATTATGGCGCTCCCCTCCAA??????????????CGGAGAC??????????????CCGATAAGACGATGGTGCCCTCCTGCAATGGCCAGCTGCGTCTATGGGCATACATTTCGTAAAACTCATGTCGG???????GACTCCATTTGTAGTCGCACGTGGAAGCGAGAATGCGCCCCTTTTGTAGCGGAGACTTTGTAGAACAGATTGTCGGAGACCCTGCGAGACTCCACGCTGTGATCCAGTGATGGTTAAGTCCTAACAGCGATTTCGT???????GACTCCATAGACGTGACTCCACCTGCAATGGCCAGCTGCGTCTATGGGCATACTTTGTAGGTGCCCTATTTCGT???????AGAAGATATTTGTCCACAGTTATGTCGGCCGATAACTCCTTAGCCGGTTGTTGAGGTAGACGT??????????AAAACTCCGGATGGCAGTATGCGCTTCGGAGGCTACTTGTATGCGAACTGCTCTCTTTTGTGCATGTCGGGCCGGTTGACGATGCGGAGACGGATCAGGGTACGTATCTGTATATCTACACTGTAGACGTAAAACTCCAGTATGCCGATAAATCCAGTACACGCGCCTAAATCTTAACTACACTGACAACAACCCGTTTCAATAGGGAACAGCGCCTACGT'
p492
aS'TATTATGAATAGGGCGGATGGGTGCGCG???????????????????????????????????????????????????????????????GGAGTATTTGCCGTGGATTGTCCTGCAATGGCCAGCTGCGTCTATGGGCATAC???????CTTTCGAATCATCA???????CTTATGG???????ATGTCGGATCCAGT??????????????AAGTCCT???????ATGTCGG???????CCGTTTCGTCATGA???????????CAACAAC??????????????TATTATGCACAGTTGCGAACT???????ACACGCGGCTCTCTTATTATGTCTTCATAGCAGTTGCATATGTCGGCCGGTCGGCGGGATCAGGGTACGTATCTGTATATCTACACTGTGGATTGGCACGTAAGACCGTAACACCGAGCAGTTATATGAGGACGGGATAGACGT???????CCTAAATGCGAAGGATATGAG???????CCGTTTCCGCTTCG???????GTGACTTATGGCTCCTTAAATAGGGCGGATGGGCATCACAGACCGTGCATATG???????AAAACTCCAGTATGGCATCACAACACCGTTCAGCAGCGAAGGGACGATGGTGCCCTGGATCAGGGTACGTATCTGTATATCTACACTGATTTCGTGTTGAGGCCTGCGAGTTTCGATTCAGCAGTTTCGAGCCGGTT??????????????ATCATCATTCAGCAGTTTCGAGTGCGCGCGCCCCTCGCTGTGTCTTAACACCGGCGCTCCTCGCACGAAGTCCTAACACCGGGAGTATTTGCCGT???????GTTGAGGCCTGCGAAACACCGGCATCACATATGAGGCCGGTTGACTCCATTTGTAGGGATCAGGGTACGTATCTGTATATCTACACTGCGGAGACAACAGCGCAGTATGTATTATGGTTTCGAAGCAGTTGCGAAGGAGAAGATAAAACTCGGATTGTACACTGAAGCAGTTCACAGTTCAGTATGATTTGTCTTCAGCACCGATGTCGGGTTTCGACAACAAC???????GCGAACTCCTGCGACTTAACTGTCATGACGGAGACTTTGTGCAGACCGTTCTTCATTTCAGCAGTCATGAAGCGAATCTTGTATTAGACGTCCTGCAATGGCCAGCTGCGTCTATGGGCATACAAAACTC???????CCTCCAACTTATGG???????CTTATGGGCATATGATCCAGTTTTGTAGCTTATGG???????GTTGAGGCCTAAATATCCAGTCGCTTCGGCATCACTCTTCTATGGATATGAG???????CCGATAACTTAACTTCGCACG???????TCTTCATCCGATAACCGATAAATCATCAGTCATGA???????TCTTCATGACCGTC???????CAGTATGCCTGCAATGGCCAGCTGCGTCTATGGGCATACGCCGGTTGTTGAGGGGTATATAGCAGTTAACACCGTATTATGGGAGTATTTGCCGTATGTCGGAGCAGTTAACACCGGCACGTAACACTGAGAGGCTA???????TATTATGGTGG??????????????ATGTCGGCCTCCAAAGCGAATTTCAGCAACACTGAGAGGCTAGGATTGTGCATCACATATGAGTTCAGCAAACAGGACAATACGCCTGCGAGGATCAGGGTACGTATCTGTATATCTACACTGGCGAAGGTGGAAGCTTTGACTGTTTCGATATTATGGTTTCGAGACGATGATTTCGTCTTAACTGTTTCGACAGTATGGAGAATGCCGATAACGCTGTG???????TCTTCATCATCAGCAGTT???????CTCCTTAACACGCGTGGAAGCGCCGGTT???????CCTAAATGACTCCAACACGCGTTCAGCAGTCATGA???????GTCCCAGGAGAATG???????CCTGCAATGGCCAGCTGCGTCTATGGGCATAC???????TTGCCGT??????????????CTTATGGAACACCGGCTCTCTCGGAGACGCGAACT???????CTTATGGGATGGTTGCTCTCTTTTGTGC???????AACACCGGCAGATCCAGT???????AGAAGATGCCGGTTAAACATCTCTTCATGAGGCTACACAGTTTAGACGTATTTGTCAGCAGTTTCTTCATGCATCAC???????GGATTGTCCTACGTGGATCAGGGTACGTATCTGTATATCTACACTGAAACATC??????????????ATATGAGCTTATGGTCTTCATAACAGCGTCGCACGAAGTCCTGTCCCAGAACAGCGCCTACGTGTTGAGG??????????????ACCTGACGGGAATTTGTCCCTGCGAGCGAAGG???????TTTGACTAACAGGAATTTGTCCCTACGTAAACATCGTCATGATATTATGGTCATGA???????GATGGTTTGGAAGCCCTGCAATGGCCAGCTGCGTCTATGGGCATACGAGAATG??????????????CTTATGG??????????????GATGGTTTTTGTGCAGAAGATCAATACG??????????????AGACCGTTTTGTGCAGAAGATTTTGTGCGTTTCCAGCAAGAAGATGACGGGAGACGGGAGCATATGGTCATGA???????GGTATATTTTGTAGGACGGGATGGAAGCGTCATGA???????TCTTCATGGAGTAT???????CCTCCAAGGATCAGGGTACGTATCTGTATATCTACACTGAGCGAATGCATATGATCATCAAGCAGTTATATGAGTATTATGGAGAATGATTTCGTGACTCCAGACCGTCATATGAGTATTATGATCATCAACACGCGGCTCTCTATTTGTCAACACCAGTTGCGCTCCCGCCCCTATCCAGTGGAGTATCTTGTATGCATCACCTTTCGAGTGCCCTGTGCCCTCCTCCAAATATGAGGCATCACAACACCGGATGGTTAGACCGTGCACGTAGGATCAGGGTACGTATCTGTATATCTACACTGAACAGCGCCTACGTAAACATCTTCAGCAGTTTCGAGCATCACAGCGAATGCACGTAGACGATGTCGGCCGGTCGGCGTGGATTGTTGCCGTGGATTGTGCGCTCCCGCCCCTCGCTGTGCTCCTTA??????????????GTCATGA???????AACAGCGCCTACGTGTTTCGAGCATCACATATGAGGTCATGACTTATGGTCTTCATGGATCAGGGTACGTATCTGTATATCTACACTGAGCAGTTCCTACGTAAAACTCTATTATG???????TTCAGCAAAACATCAAGTCCT???????CTTATGGTTTGACT???????CGCTTCGAGCGTTCAGCA???????AACAGGACAATACG???????CACAGTTGCGAACTAACACCG??????????????TAGACGTAAACATCGATGGTTGGATCAGGGTACGTATCTGTATATCTACACTGTGGAAGCAGCAGTTCGGAGAC???????ATATGAGAGCAGTTCCTAAATCCTCCAA???????GGTATATGGTATAT???????GTTTCGATTGAGCATCAC???????GACCGTCCTTTCGA???????AGCGAATGCACGTATCTTCATTATTATGGTCATGATTTGTAGAACACCGTTCAGCAGGATCAGGGTACGTATCTGTATATCTACACTGGTTTCGAATTTCGTGACTCCACTTATGGGTCATGACTTATGGAACAGCG??????????????TCGGCCG??????????????ATATGAGGCTCTACGCGTATTATG??????????????GTCGGCGTGGATTG???????CCTACGTAAACATCTATTATGTCTTCATAGCAGTTGTGCCCTGCATCACATATGAGCCTGCAATGGCCAGCTGCGTCTATGGGCATACTATTATGCCTCCAAGACGATGAACACCGCTTATGGATATGAGGATGGTTACACTGA???????CTTGTATCTTTCGA??????????????ATATGATCAC???????CAATACGGACCGTCGTCCCAGGAGAATGCTTAACTTGGAAGCGCATCACGTCATGATTCAGCATCTTCATGAGAATG???????GGATCAGGGTACGTATCTGTATATCTACACTG???????TTCAGCACTTATGGGTTTCGACTTATGGGTTTCGAGAGAATGTGGAAGCTGGAAGCTTTGACTAGCAGTTAACAGGA???????CCGTTACAAC???????GTCCCAGTCTTCATAACAGGATCGCACGGATGGTTCCTCCAA???????GTCATGAGCATCACAACAGCGAACACCG???????GGATCAGGGTACGTATCTGTATATCTACACTG??????????????GGATTGTATATGAGTATTATG???????AGCGAATGCACGTACTTGTATCAATACGGGTATATGCACGTA??????????????CTTATCATGA???????CCTCCAAAGCGAATGACCGTCGTCGGCGTGGATTGTCGCACG??????????????GTCATGAGGAGTATTTGCCGT???????GGATCAGGGTACGTATCTGTATATCTACACTG???????GGATTGTATCATCACTTATGGAACACCG???????AAGTCCTAAACATCTCGGCCGCTTTCGAGTCCCAGGAGAATG???????CTATAATAGGGTGGAAGCTTTGACTAACACCGCTTTCGAGATGGTTGAGAATG???????TTCAGCATCTTCATGCATATGGTCATGAGTTTCGAGGATCAGGGTACGTATCTGTATATCTACACTGGCATCAC???????AGACCGTAGCAGTTGTTTCGA???????CCTCCAAACACTGAGACCGTCTTCAGCA???????GATGGTTCGGATGGATAATATTATGAAACATC???????TCGGCCGGGTATATGAGGCTAGAGGCTA???????GCATCACTCTTCATGCGAAGG???????AGCGAATGGATCAGGGTACGTATCTGTATATCTACACTGGCACGTAGTTGAGGCCTGCGAAGCAGTTATATGAGTATTATGAACAGCGAACAGGACAATACGGTCGGCGAACAGCGCCTACGTGTCATGAAGCAGTTCATCTTATGGTCTTCATTATTATGTGGATTGCTTGTATTTTGACTCCTACGTAAACATCGCATCACAACACCGTTCAGCAGCCGGTTCAGTATGGCCGGTTCCTGCAATGGCCAGCTGCGTCTATGGGCATACGTTGAGGTATTATGCAGTATGGTTTCGATTCAGCAGTTTCGAGATGGTTGCACGTAGTCCCAGGACGATGGCATCACATATGAGAGCAGTTGTCATGCGCGAACACCGCTTGTATGTTTCGAGTGCCCTCTTAACTAGCGAATTGGAAGCTTCAGCAAACACCGGCATCAC???????ATATGAGCCTGCGACCTGCAATGGCCAGCTGCGTCTATGGGCATACGCGAAGG??????????????ATATGAGAGCAGTTAACACCGGAGAATGGCGAACTCCTAAATATTTCGTGTCGGCGTGGATTGTTCAGCA??????????GTTTCGAAAAACTCTCGGCCGGACTCCACCTACGTCACAGTTCCTCCAAAGCAGTTTCTTCATTATTATGTTGCCGT???????AGACCGTGGATCAGGGTACGTATCTGTATATCTACACTGGCATATGATCATCAGGAGTATGTCATGACTTATGGTCTTCATAGCGAATGCACGTAAACAGCGTTTGTAGCGGAGACTAGACGTGCATCACATATGAG'
p493
aS'GTGCCCTATTTGTCTCGCACGAAGTCCTTTTGACTAACAGGACAATACGCCTACGTAAACATCGATGGTTATCATCAGGAGTATTTGCCGTAACAGCGCCTACGTAAACATCCCTGCAATGGCCAGCTGCGTCTATGGGCATACGATGGTTGCTCTCT???????GGATTGTGTCCCAGGCATATGTGGAAGC???????AACAGCGGGTATATTTTGTAGGTCCCAGCACAGTTCCTAAATAGAAGATATTTCGTGAAGCGGAGACTTTGTGCCTTAACTACACTGAAAAACTCCGGAGACTAGACGTCTTGTAT??????????????AGACCGTTTTGACTAACAGGA???????GACGGGATTTGTGCCCTGCAATGGCCAGCTGCGTCTATGGGCATACAGAAGATGACGATG???????CAATACGCGCTGTGGCGAAGGGACGATGGATGGTTTGGATTGAAAACTC???????TAGACGTGAGGCTAGTCATGAGACGGGATAGACGTAAGTAAACATCGCTCTCTCTTATGGTCTTCATCGGAGAC??????????????GTCGGCGTGGAAGCGAGAATGCCTGCGACTCCTTACGCTTCG???????GTGCCCTATTTCGTCCTGCAATGGCCAGCTGCGTCTATGGGCATACGACTCCA??????????????CAACAACGCCGGTTGTTGAGGCCTCCAACTTTCGATCGGCCG???????GACTCCATTTGTAGAGCAGTTATCCAGTACACGCGGAGCGAGAATGCCGATAAAACACCGTTCAGCAATTTCGT??????????????GACCGTCAGCGAATGCACGTACAGTATGCCGTTTCAATAGGG???????TTTGTAGCGGAGACGGATCAGGGTACGTATCTGTATATCTACACTGTAGACGTGACGATG???????CGGATGGGACCGTC???????GTCATGAATTTCGTGGTATAT???????AAGTCCTGTGCCCTGTTTCGACTTATGGATGTCGGCCTCCAAAACAGAACTCAGCGAATAAAACTCGTCATGAGCATCAC???????TCGCACG???????AAACATCGTGCCCTCTTATGGCGCCCCTGGTATATGTGCGCGGCACGTAATTTGTCAAAACTCCCTGCAATGGCCAGCTGCGTCTATGGGCATACCAGTATGGAGAATGAGCGAAT???????CCTACGTGCGCTCCTCTTCATCCTCCAACCTACGTGTCCCAGCTTTCGAATTTGTCATATGAGCCTAAATTAGACGTGCACGTATTTGTCTCCAGTCATGAGCGAACTGCGAACTTATTATGGACTCCAGACCGTCTTTGACT???????GAGAATGAGCAGTTGCACGTAAACAGCG???????ACACGCGTGGAAGCGCCGGTTGGATCAGGGTACGTATCTGTATATCTACACTGGTTGAGGCCTGCGAATCCAGT??????????????AGCGAATAACACCGTTCAGCA???????AACAGGACAATACGATTTCGT??????????????CACAGTTCTTATGGTCTTTCGCACGAAGTCCT???????GACGATGGTGCCCTGGTATAT??????????????GTTTCGAGAGAATGCCTCCAA???????ATGTCGGCCGATAAGCGAAGGCCTGCAATGGCCAGCTGCGTCTATGGGCATACAGACCGTGAGAATGGCACGTA???????AGCGAATTGGAAGCGCATCACAAAACTC???????GACCGTCTTTGTGCAAAACTC???????TTTGTAGATTTGTCAACACCG????CGGAGACAGAAGATCGGAGACCTTAACTTAGACGTAGAAGATTCGGCCGGCACGTAAACAGCGAGCGAATGATGGTTGCACGTAAAACATCAGCGAATCCTCCAACCTCCAACCTGCAATGGCCAGCTGCGTCTATGGGCATACAGCGAATGGATTGTCCTCCAAGATGGTT???????AAACATCGCACGTAAACAGGAAGCGAATGTCGGCGCTTGTATCGGAGACACACTGA???????TTTGTGCTAGACGTTAGACCTACGTGACGGGA???????TCTTCATTTTGTAGGACGATGCACAGTTCCTCCAACAATACGGACTCCACCTACGT???????CTTTCGAGAGAATG???????GTGCCCTCCTGCAATGGCCAGCTGCGTCTATGGGCATACATTTCGTGATGGTTTGGAAGCTCGGCCGGCACGTAAACAGCGTTTGTAGTGGAAGCGAGAATGGCGAACTATTTCGTGACTCCAAGCAGTTACACGCGGCTCTCTAATTTGGAAGCATCCAGTAACACCGTTCAGCAGTGCCCTCCTAAATCTTAACTGATGGTTCGGAGACTAGACGTAGCGAATGTCGGCGTGGATTGAAACATCGACTCCATTTGTAGCCTGCAATGGCCAGCTGCGTCTATGGGCATACCGGAGACAACAGCGCCTACGTCTTGTATGAGAATGCCTCCAAAAAACTCCCTACGTAAACATCACACTGACTTGTATGACGATGGTTTCGAATGTCGGCCGATAAGAGAATGGTCATAACTCCCTCCAA???????GAGGCTAGCATCACTGGATTGTGGATTGGAGGCTATTTGACTAACAGCGGACGATG???????TGGAAGCAACAGCGTTGCCGTGCACGTATAGACGTCCTGCAATGGCCAGCTGCGTCTATGGGCATACAAAACTCATCATCAGGAGTATCCTACGT??????????????GTGCCCTTATTATGGTCCCAGATGTCGGTCGGCCGGTCGGCGATATGAG??????????????AGCGAATGTTTCCAGCAGCACGTAGACTCCA???????TATTATGGACGGGACTTTCGACCGATAATAGACGTATATGAGATTTCGTCCTCCAA???????AAACATCTGGAAGCGCATATGAACAGCGCCTGCAATGGCCAGCTGCGTCTATGGGCATACCCTACGTAAACATCGATGGTTGATGGTTTGGAAGCGAGAATGGACTCCATTTGTAGCGGAGACATCCAGTACACGCGGCTCTCTGACGATGGTGCCCTATTTCGT?????????????????????ACACTGAGAGGCTAGTCCCAGTTTGTAGCGGAGACTAGACGTGTGCCCTATTTCGTGACTCCAGACGATGGTGCCCTATTTCGTGGATCAGGGTACGTATCTGTATATCTACACTGGACTCCAAGCAGTTGAGGCTATTTGTAGGCATATGGACGATGAAAACTC???????GACTCCATTTGACTGTCATGACTTAACT???????TTGAGCATCACCCTAAATCTTATGGTCTTCATATTTCGT?????????????????????ATCATCAGGAGTATACACTGAAACACCGTTCAGCAGGATCAGGGTACGTATCTGTATATCTACACTGGTTTCGAGGTATATCTTAACTTTGCCGTTAGACGT??????????????TTTGTGCGTGCCCTAGCAGTTCGCTGTGGCGAACTATATGAGAAGACTTATGGCACAGTTCTCCTTACGCTTCGGACGATGAGAAGATATTTGTC???????AAAACTCGACGATGCCTAAATGACCGTCCTTTCGACCTGCAATGGCCAGCTGCGTCTATGGGCATACTCGGCCGCACAGTTGCGAACTGTGCCCT??????????????GTCCCAGCGGATGGGTGCGCGCAACAACTCGCACGAAGTCCTTCTTCATGATGGACATCAGCAGTTAACACCG???????CCGTTTCAATAGGGAATAGGGTTTGACTAACAGGA???????ATTTCGTGACTCCAAAGTCCTGTCGGCGTGGATTGGGATCAGGGTACGTATCTGTATATCTACACTGCTTGTATATATGAGTCGCACGTTTGTAGCAGTATG???????CAATACG???????CCGTTTCCGGATGGTTCAGCA???????TTCAGCAGTCATTTATGGTTTCGACGCCCCTAACACCGGTGCGCGGACGGGA???????GGTATATCGGAGACGGATTGTCGGAGACCAATACGGCATCAC???????CCTGCAATGGCCAGCTGCGTCTATGGGCATAC???????CGGAGACAACAGGATAGACGTTAGACGTTTTGTAGGACCGTCGCCGGTTGCTCTCT???????CAATACGGCGCTCCGCATCAC??????????ATATGAGATTTGTCAACAGGA??????????????CAGTATGCTTTCGAAGACCGTCGGAGACAAAACTCTCTTCATTTTGTAG???????CCTGCAATGGCCAGCTGCGTCTATGGGCATAC??????????????CTTATGGGACGATGGTGCCCTGCGAAGGTCGGCCGGTCGGCG?????????????????????AGAAGATTATTATGGACGATGAGCAGTTCATGTGCCCTGACGGGATTTGTGC?????????????????????TGGATTGGTTGAGGCCTGCGAATTTCGTCTTGTATGTCATGA???????GGATCAGGGTACGTATCTGTATATCTACACTG???????GTCCCAGTGGATTGGACTCCAATTTCGTGCCGGTTCTTGTATATCCAGT??????????????CGGATGGGCTCTCTATTTCGTGAAG???????ACACGCGGTGCGCGGGTATAT???????ACACGCGGTTGAGGCAGTATGGACTCCAAAAACTCGTCGGCGTTTGACTTAGACGTCCTGCAATGGCCAGCTGCGTCTATGGGCATACAAAACTC???????TCGGCCGAACAGCG???????GCACGTACCTGCGACGCTTCG???????GACCGTC???????ATCCAGT???????AACGCTTATGGCCGATAA???????GTTTCGAGGATTGTCAACAAC???????AGCGAAT???????GCCGGTTCTTTCGA???????TATTATGGGATCAGGGTACGTATCTGTATATCTACACTGCAGTATGGGTATATGACCGTCGTTGAGGGAGAATGCCTCCAAATGTCGGGGAGTATTTGCCGTGCATCACCTTGTATATGTCGGTCTTCATTGGAATGGTTAGCAGTTAACACCGTGGATTGATATGAGTATTATGATCATCACCGATAAATCCAGTTGGAAGCCCTGCGAGCGAAGGCAATACGGCCGGTTGTTGAGGGGATCAGGGTACGTATCTGTATATCTACACTGCCTGCGATTTGACTAACAGGAAGACCGTAAACATCGATGGTTACACGCGAGACCGTGCATATGGCGCTCCTCGGCCGGTCGGCGTTCAGCACCTACCAGCGGTTTCGA???????CTTTCGACGCCCCTCTCCTTAGCGAAGGGCTCTCTAAAACTCCCTACGTGCATATG???????GTCCCAGGCGAAGGCCTGCAATGGCCAGCTGCGTCTATGGGCATACAGACCGT??????????????ATCATCACGGAGACTAGACGTGACGGGACGCCCCTCGCTGTGCGCTGTG??????????????GCATCACTTTGTCTCCAATATGAGAATAGGG???????CTCCTTACCGATAAGCGCTCCTTTGTGCGTGCCCTTTTGTAGGGAGTATGGATTGT???????GCATATGGGATCAGGGTACGTATCTGTATATCTACACTGATCATCAGGAGTATTTGCCGTTTGCCGTGGATTGTGACGATGAGAAGATATTTGTCATGTCGGCGCTTCGCAACAACCCGTTTCTATTATGGACGATG'
p494
aS'CAACAACCGGAGACTAGACGTAAAACTCATTTGTCATGTCGGCCGATAAAACAGGACAATACGGGTATATCGGAGACTAGACGTAAAACTC?????????????????????GGATCAGGGTACGTATCTGTATATCTACACTG???????CGGATGGGTGCGCGGACGATGGCGAACTTTTGTAGGACCGTCAGACCGTTTTGACTATCCAGTCGCCCCTAGAAGATCAGTATGGGAGTATTTTGTAGCCGTTTCTCCGTGGATTGGACTCCATTGCCGTGGATTGTTTTGTGCCGCTGTGCTCCTTAGTCCCAGGCATATGATCATCAGACTCCACCTAAATCTTAACTCGGATGGGTGCGCGATGTCGGCCTGCAATGGCCAGCTGCGTCTATGGGCATACCCGATAAGTTGAGGAATAGGGACACTGA???????ATTTCGTGGAGTAT???????GGATTGTCGCTTCG???????GACGGGA???????GTTTCGAATTTCGTCTTGTAT??TGGTGCCCTGTGCCCTGCATCACATATGAGGCTCTCT??????????????TTGCCGT??????????????GTGCCCT??????????????CCGTTTCCCTGCGAGCGAAGGGGATCAGGGTACGTATCTGTATATCTACACTGAGACCGTCGCTTCGCAACAAC???????GTGCGCGGACGATG???????ATCATCAGGAGTAT???????ATCCAGTACACGCGTATTATGGCACGTAGACGATGATCATTTGTAGAGCGAATGTCATGACTTATGGCCGATAA??????????????GCATATG??????????????CGGATGG???????TCGCACGCTCCTTAGCATATGATCATCAGGATCAGGGTACGTATCTGTATATCTACACTGGGAGTATACACGCGCGCTGTGAAGTCCTTCGCACGAATAGGG???????GGATTGTAGACCGT???????CCGTTTCATGTCGGTCTTCAT???????CCTCCAACGGAGACCTTATCATGATAGACGTTTCAGCA???????AGCAGTT???????CAACAAC??????????????TTGCCGTTCGCACG???????GAGGCTACACAGTTGCCGGTTATCCAGTTTGCCGTCCTGCAATGGCCAGCTGCGTCTATGGGCATACGGATTGT???????CAGTATGGCGAACTATTTCGTAAAACTCAAGTCCTTCGGCCG??????????????GCTCTCT???????AACACCGGTTGAGGAACACCGAAAACTCCGGATTAGGGTCGCACGATCATCAGCCGGTTTTCAGCAGCGCTCCACACGCG???????GCGAAGGCTTTCGACACAGTTCACAGTTGTGCCCTCCTAAATAATAGGG???????AACAGCGGGATCAGGGTACGTATCTGTATATCTACACTGCCTACGTAAACATCCCGTTTCCTTAACTACACTGAAAGTCCTGCGAACTCCTAAATCCTGCGA??????????????GGATTGTGTTTCGAGCATCACGCATATGAAGTCCTCACTGCGAAGGAGACCGTATATGAGGGAGTATTTGCCGTTCGCACGGCCGGTTGTTGAGGCTTAACTAAAACTCTCGCACGGAGGCTACGCTTCGCAACAACGATGGTTGGATCAGGGTACGTATCTGTATATCTACACTGTGGAAGCAGCGAATCTCCTTAGCGCTCCCGGAGACTAGACGTACACTGA???????CAGTATGAAGTCCTGTGCGCGATCATCATATTATGTCTTCATCCTGCGACCTAAAT????GTGCGCGGTTGAGGAGCAGTTCCTGCGAGCATATG???????GACGGGAAAAACTC???????GTCGGCGCGGAGACTAGACGTGACTCCACGCTGTGGCACGTA???????GGATCAGGGTACGTATCTGTATATCTACACTG???????GCGCTCCCGCCCCTTTTGTAGCAACAACTTTGTAGTGGATTGCCTGCGATAGACGTTTTGTGCACACTGAAGACCGTGCGAAGGTGGAAGCGCCGGTTGACGATGGTGTTCTTCATCAGTATGGAGAATG???????GCGAAGGGAGGCTAAATAGGGCGGAGACGCGAAGGATGTCGGGACTCCACCGTTTCAAGTCCTGCGCTCCCGCCCCTGCTCTCTCCTGCAATGGCCAGCTGCGTCTATGGGCATACGACGGGA??????????????CACAGTTGTGCCCTATTTCGTCCGATAAGACTCCATTTGTAGCGGATGGGTTGAGGCCTGCGA???????TTGCCGTGGATTGTAGCGTTCAGCAGGAGTAT??????????????GCCGGTTGTGCGCGGCGCTCCATTTCGTATCCAGTACACGCGGACGATGGCGAACTCCTAAAT???????TTTGTGCAGAAGATCCTGCAATGGCCAGCTGCGTCTATGGGCATACATTTGTC??????????????CTTAACTTAGACGTAAAACTCGCTCTCTGACGATGGTGCCCTCGCCCCTATTTGTCCAGTATG???????GCATATGATCATCAGTTTCGAATTTCGCCCTGCATCACGATGGTTAGACCGT???????CTTAACTAGAAGATCGCTGTGGTTGAGGCTTGTATGACGGGACGCTTCGCGGAGACACACTGAGCACGTA???????AACAGCGCCTGCAATGGCCAGCTGCGTCTATGGGCATACCCTACGTCCTCCAAAGCGAATGAGGCTACGCTGTGCTCCTTATTTGTGCCAGTATGGCCGGTTCTCCTTAGCGAACTCCTAAAT???????CCTACGTAAACATCATATGAGACACTTAACTTATTATGCTTATGGAACAGCG???????CGGATGGCACAGTTCGCTTCG???????GAGGCTAAGAAGATTTTGTAGCGCCCCTGACGATGCCTCCAAGAGAATGAAACATCCCTGCAATGGCCAGCTGCGTCTATGGGCATACGATGGTTTGGAAGCGAGAATGGTGCCCTATTTCGTGACTCCAATTTGTC??????????????CAACAACCCGTTTCAATAGGG??????????????GTCATGA?????????????????????CGGATGGGTGCGCGATGTCGGATTTCGTGACTCCATTTGTAGAAAACTCGTCATGACTTATGGCCTACGTAAACATCGATGGTTGGATCAGGGTACGTATCTGTATATCTACACTGTGGAAGCCCTCCAAAACAGCGTCTTCATGACGATGTAGACGTCGGAGAC???????GTGCCCTCCGATAA???????AATAGGG???????CTGAGAGGCTACCGTTTC??????????????GACGATG??????????????CGGAGACGTGCCCTATTTCGT???????AGCGAATGCACGTACCTGCAATGGCCAGCTGCGTCTATGGGCATACGACGATGCTTATGG???????GACTCCACTTAACTTTTGTAG???????ATGTCGGATTTGTC???????GTGCGCGCAACAACGACGATGGTGTGACTCCACGCTTCGGTCATGACTTATGGAGAAGATCCGATAAATCCAGTGACTCCAACACTGAGAGGCTA???????TCTTCATAGCAGTTCCTGCAATGGCCAGCTGCGTCTATGGGCATACAACACCG??????????????TCGCACGGTGCCCTATTTCGTACACGCGGACGGGATTTGTGCTCTTCATCGCTGTGCTCCTTATTTGTAGAACACCAGTTCGGAGACTAGACGTCGCCCCTAGCAGTTAACACCGGCTCTCTGCTCTCTGACGGGAGACGATGAAGTCCTCACAGTT???????TTCAGCAGTTTCGAGGATCAGGGTACGTATCTGTATATCTACACTGGCATCACATTTCGT???????GCGAACTCGGAGACTATTATGTTTGTGC???????ACACGCGTTCAGCA???????GCGCTCCAAAACTCATTTCGCCCTGTCCCAGCGGATGG???????GTTTCGAGAGGCTA???????AGAAGATCCTAAATTTTGTAGCCTAAATGTCATGAGTGCCCTATATGAGGGATCAGGGTACGTATCTGTATATCTACACTGTATTATGCCTCCAATATTATGCTTAACTAACACCGGCGAACTATTTGTCAAAACTCACACTGAGCATCACACACGCGAATAGGGTTTGACT??????????AACAGGA???????ATCCAGTATATGAGGAGGCTATAGACGTGACGATGCTTGTATAGCAGTTACACTGAGAGAATGGAGAATGGTCATGACCTGCAATGGCCAGCTGCGTCTATGGGCATACCTTATGGTCTTCATTGGAAGCGAGGCTAGTCATGATGGATTGGTGCCCTATTTCGTACACTGATATTATGATGTCGGTATTATGCAATACGGGTATATGCGAACAGTTGACCGTCGCATCACATATGAGCCGATAACCTAAATCTTAACTGACTCCATCGGCCGGTCGGCGCTTATGGAAACATCGATGGTTAGCAGTTGGATCAGGGTACGTATCTGTATATCTACACTGAACACCGGCATCACCCTACGTTCTTCATAAGTCCTCTTTCGATTTGTAGCCTAAATGCGAACTATCCAGTCAACAACGTTTCGACTTTCGAAAGG???????TTCAGCACCGTTTCGCTCTCTCACAGTTCTTAACTGACGATGGACCGTCCACAGTTTTCAGCAAACAGCGATATGAGAGCGAATCCTGCAATGGCCAGCTGCGTCTATGGGCATACGCACGTATATTATGAAAACTCGTTTCGAGCATCACGGTATATGTGCCCTCCGATAAAAGTCCTGACGGGAAGAAGATAACACCG???????GTGGGACTCCAAGCAGTTATTTGTC???????TCGCACGATCCAGTGACGATGCAATACGATATGAGTAGACGTTAGACGT???????GACTCCACCTGCAATGGCCAGCTGCGTCTATGGGCATACTTTGTAGTTTGTAGCGGAGACAAAACTCTTTGACTAACAGGAGTGCCCTTAGACGTAAAACTC???????CTTATGGTCTTCATTTTGTAGGACTCTTCGTCGGAGACTAGACGTGTCATGA??????????????CGGAGACATTTCGTGACTCCAGTCCCAG??????????????GACTCCACGGAGACTAGACGTGGATCAGGGTACGTATCTGTATATCTACACTGAAAACTCGTGCCCTATTTCGT???????ATATGAGTATTATGTTTGTAGGACTCCATTTGTAG???????AGAAGATATTTGTCAAAACTCGACGA?????GCGCTCCTTTGTGCTTTGTGC???????ATGTCGGATTTCGTCGGAGACGTTTCGAGCATCAC???????ATATGAGGACGATGGTCATGAGGATCAGGGTACGTATCTGTATATCTACACTGCTTATGGGTTTCGAGCATCAC???????AACACCGTTCAGCATAGACGTTAGACGTAAAACTC???????GCTCTCTGACGGGACGCCCCTGTCGGGGCCGCGCTGTGCGCTTCGACACGCGGCGCTCCGCGAACTCGGAGACAAAACTCTCGCACGAGCAGTT???????GTTTCGATTCAGCATCTTCATCCTGCAATGGCCAGCTGCGTCTATGGGCATACAGCAGTTAACACCGTTCAGCA?????????????????????TCGCACGAAGTCCTCACAGTTCGCCCCTCGCTGTGCTCCTTACTCCTTACGCTTCG'
p495
aS'???????AACAGCGCCTACGTAAACATCGACGATGGTGCCCTATTTCGTGAGGCTAGTCATGACTTATGGCGCCCCTCGCTGTGCTCCTTAACACTGAGAGGCTAGACGATGGGATCAGGGTACGTATCTGTATATCTACACTGGTGCCCT???????CTTAACTCGCTTCGCCTGCGAGCGCTCCTCTTCATGCGAACTACACTGAGACTCCAAAGTCCTAAAACTCGATGGTTCCTGCGAGTGCGCG???????CTATAGCAGTTCGGATGGGCGAAGGAGACCGTTAGACGTCACAGTTGCGAACTCTTAACTCCTAAATCTTAACTTATTATGGCGAAGGAGACCGTCCTAAAT??????????????CCTGCAATGGCCAGCTGCGTCTATGGGCATAC???????GAGGCTAGCGAACTGCATATGTCGCACGATATGAGACACTGA???????CCTAAATCCTAAATAAAACTCCGGAGACGCATATGATGTCGGAATAGGGAACACCGAATTTGGAAGCCCGTTTCCCGATAAATCCAGTTTTGTAGAACAGCGCCTACGTGCGAACT???????TCGCACGGCATCACAAGTCCTCACAGTTCACAGTTGTCATGACTTATGGCCTGCAATGGCCAGCTGCGTCTATGGGCATACTCTTCATTCGCACGAAGTCCTGCGAACTTTCAGCAGTTTCGAAAGTCCTAAGTCCTCACAGTTAAACATCATTTCGTGACTCCAACACGCGCGCTTCGCAACAACGAAAAGCGAATCTCCTTAGCTCTCTGACGGGAGTGCCCTGATGGTTTGGAAGCTCGCACGCACAGTTGCGAACTAACACCGCCTAAATCTTAACTGGATTGTAGCAGTTAACACCGCCTGCAATGGCCAGCTGCGTCTATGGGCATACTTCAGCA???????TTGCCGTACACTGAGGAGTATAGCAGTTCCTAAATTCGCACGGGATTGTGAGAATGACACTGAGACGATGTTTGTGCGGAGTATCGCTGTGGCACGTAGTTTCCAGCAGTCATGA???????ATCATCAAGAAGATTAGACGTCTTAACTCCTCCAA???????GAGGCTACTTAACT???????ATCATCAGAGGCTAACACTGA???????GTTTCGAGGATCAGGGTACGTATCTGTATATCTACACTGGCATCACGACTCCACTTAACTAACAGCGCCGTTTC???????ACACTGAAACACCG???????AGCGAATCGGAGACCGGAGACATTTGTCGAGAATG???????CTTATGG??????????TCTTCATGTTGAGGTGGAAGCAACAGCGTCGCACGTTTGTAGGCACGTACACAGTTAGCAGTTGAGGCTAGTTGAGGCAACAACCCTACGT???????ATTTCGTATATGAGCCTGCAATGGCCAGCTGCGTCTATGGGCATACTATTATGCAGTATG???????AAACATCGATGGTTGCCGGTTCAGTATGGCCGGTTAAGTCCTGTCATGACTTATGGAAAACTCCCTACGTAAACATCGCCGGTTAGCAGTTAACAGTGCGCGCAGTATGGATGGTTCGGAGACTAGACGTTCTTCATGAGGCTATCGCACGGTTGAGGGTGCGCGCAGTATGTGGAAGCGCACGTA???????GCCGGTTCCTGCAATGGCCAGCTGCGTCTATGGGCATACGTTGAGGGCGAACTAGCGAATGAGAATG???????CGGATGGCCTGCGA???????ACACTGAAGCAGTTGACTCCATTTGTAGTGGAAGC???????CGGATGGGTTTCGATTGT???????AATAGGG???????CCTCCAAGACTCCATTTGTAGTAGACGTCTTAACT???????TTCAGCAAATAGGG???????AATAGGGCCTCCAACCTAAATTTTGTAGCCTGCAATGGCCAGCTGCGTCTATGGGCATACCGGAGACATCATCAGAGAATGCGGATGGCTTATGGCCGTTTCGTTTCGAGGAGTATCCTAAATAAAACTCATATGAGATTTCGTAGCGAATGCGCTCCCCGTTTC???????GTGTGCATCACCAACAACCGCCCCTTTGCCGTGTGCCCTTATTATGGAGGCTAGCGAACTTTGCCGTAAGTCCTCAACAACTCTTCATTTGCCGTTGGAAGCGGAGTAT???????CCTGCAATGGCCAGCTGCGTCTATGGGCATACTCGCACGAAACATCGATGGTTGGATTGTCTCCTTACGCTTCGCACAGTTAAGTCCTCACAGTTTCGCACG???????GACGATGGGATTGTCTCCTTACGCTTCGATTGCAGTATGCGCTGTG?????????????????????AAGTCCTCACAGTTTCGCACGGCGAACTCCTAAATCGCTGTG??????????????CCTACGTAAGTCCTCACAGTTGGATCAGGGTACGTATCTGTATATCTACACTGGCGAACTAAAACTCAACAGCG???????GCGCTCCCGCCCCTCTTAACTATATGAGTATTATGGCGAACT?????????????????????GCGCTCCCGCCCCTGCCGGTT??????????GTTGAGGGCACGTAGCACGTA???????GCATCAC???????CCTAAATATCATCAGCATCACACACTGAGTCATGAGTGCGCG???????GCATATGTAGACGTCCTAAATGGATCAGGGTACGTATCTGTATATCTACACTGCTTAACTGCGAAGGAGACCGT???????AGCGAATGCACGTAGAGGCTAAGACCGTGCATATGCTTAACTTTCAGCAGTTTCGA???????CCTCCAAAGCGAATCCTGCGAATATGATCACGCGAAGG???????GAGAATG???????ATTTCGTAACACCGACACTGA???????GCGAAGG??????????????CCTCCAA???????CACAGTTCCTGCGAACACTGACCTGCAATGGCCAGCTGCGTCTATGGGCATACGAGGCTATCGCACGAAGTCCT??????????????????????????????????????????GAGGCTAGACGATGGTGCCCT?????????????????????AGACCGTGCATATGATCATCAGATGGTTTGGAAGCGAGAATGGACGATGGTGCCCTATTTCGT??????????????????????????????????????????GGATCAGGGTACGTATCTGTATATCTACACTG???????ATTTCGT??????????????GCATATG???????GACTCCA???????GGATTGTCCTCCAAGACTCCAAAACATCGGAGTATGCAGTATTATGCCTACGTTTTGTAGCGGAGACTTGCCGT?????????????????????ATCATCAGGAGTAT???????GACTCCATTTGTAGCCTGCAATGGCCAGCTGCGTCTATGGGCATACCGGAGACAGACCGT???????TTGCCGTCAGTATG??????????????GCACGTAGGAGTATTAGACGTGTGCGCGAACAGCGGACGATG????CAGTATGAAAACTCGACGATGGTGCCCTATCATCATCGCACGAAGTCCT???????GCCGGTTGTTGAGG???????GCATATGATCATCAGGATCAGGGTACGTATCTGTATATCTACACTGGGAGTATATTTGTC???????CCTGCGA??????????????CACAGTTAGACCGTGCATATGATTTCGTCGGAGACTAGACGTGCCGGTTTATTAATGAGGTTGAGGCCTGCGATTTGTAGGACTCCATTTGTAGGCGAAGGGCGAACTCCTAAAT???????GCGAAGGAGACCGTAGAAGATTTGCCGTGGATTGTCCTGCAATGGCCAGCTGCGTCTATGGGCATACGACGATGAAAACTCTTTGTGCGCATATGGACGATG???????CTTAACTATGTCGGCCTGCGACGGAGACGACGATGGACTCCAGCGAAGGATTTCGCCCTAGACCGTCGGATGGAAAACTCTAGACGTAGCGAAT???????ACACTGAATTTGTCGGATTGTATCATCAGCGAAGGTAGACGTGTGCCCTGGATCAGGGTACGTATCTGTATATCTACACTGATTTCGTGTGCCCTCCTGCGAGGAGTAT???????AGAAGATGAGGCTACGGAGACCCTCCAAAAAACTCGCACGTAAATAGGGGCATATGGGATTGCCGTATCATCAATTTCGTAGCGAATGACGATG???????TTTGTAGGACGATGAGACCGT???????TTGCCGTGTGCCCTGACGATGGACTCCAGGATCAGGGTACGTATCTGTATATCTACACTGTTTGTAGCGGAGACGACGATGGGATTGTAACAGCGGCGAAGGGTGCCCTATTTCGT???????GTGCCCTATTTCGTGTGCCCTGGAGTATTTGCCGTTTCAGCACCGGGATTGT???????GACGATGGACTCCA??????????????GACTCCAGTTGAGGCCTGCGACCTACGTTAGACGTAAAACTCTAGACGTGGATCAGGGTACGTATCTGTATATCTACACTGAAAACTCGCCGGTTCGGAGACAAACATCGACGGGAGCCGGTTTTTGTAGTGGAAGC???????TTTGTAGCAACAAC???????GTCATGA????AACAGCG???????CCGTTTCTCGCACGATTTGTCGAGAATGTAGACGTCAGTATGTTTGTGCGCGCTCCTTTGTAGGTTGAGGATTTCGTGGATCAGGGTACGTATCTGTATATCTACACTGGACTCCAGCTCTCTGACTCCACGCCCCTAGCGAATGTGCGCGAAAACTCGCCGGTTAGAAGATAAGTCCTGTGCCCT???????CCTACGTTTGAGACTCCA???????ATTTCGTGTGCCCTTTTGTGCGTTGAGGCCGATAACGGATGGGCACGTAGTGCCCTATTTCGTGACGGGAGTCCCAGCCTGCAATGGCCAGCTGCGTCTATGGGCATACTTTGACTGACGATGGTGCCCTATTTCGTCCGTTTCAATAGGGATCCAGTGCTCTCTGACGGGAATTTCGTACACTGAGAGGCTATTTGTAGCCTCCGAATGCGGAGACTAGACGTCTTAACTGACTCCATTTGTAGACACGCGACACGCGGCTCTCTCAACAACGACTCCATTTGTAGAAAACTCAACAGGACAATACGCCTGCAATGGCCAGCTGCGTCTATGGGCATACGGTATATCGGAGACTAGACGTCGGAGACCTCCTTACGCTTCGGACGGGACCGATAAATCCAGTCGGAGACGCGAACTCCTAAATAAAACTCGATGGACATC???????GACGATGCACAGTTTAGACGTCAGTATGATGTCGGTTTGTGCCCTCCAACGCTGTGTAGACGTACACGCGTTTGTAGGACCGTCCCTGCAATGGCCAGCTGCGTCTATGGGCATACCTTTCGACCGATAAATCCAGTAAAACTCTGGAAGCGAGAATGAGAAGATTAGACGTAAAACTCAAAACTCTAGACGTAAAACTC???????TCTTCTATGG???????CGCTTCGCGGAGACGCGCTCCGATGGTTCGGAGACATTTGTCGCTCTCTGATGGTTATGTCGGCAGTATGATGTCGGTCGGCCGGGATCAGGGTACGTATCTGTATATCTACACTGGTCGGCGTGGATTGCTTGTATCCGATAAATCCAGTACACGCGAACAGCGCCTACGTAAACATCCGCCCCTCGCTGTGCTCCTTA??????????????'
p496
aS'AGACCGT?????????????????????CCTACGTAAACATCGATGGTTAGAAGATATTTGTCTCGCACGCACAGTTGCGAACTCCTAAATACACGCGGCTCTCTGACGGGACCTGCAATGGCCAGCTGCGTCTATGGGCATACTTTGTGCAAAACTCATCCAGTCTTAACTGCATCACAAGTCCTAAGTCCT???????TTTGTGCTGGAAGCACACTGAAACAGCGATGTCGGTCTTCAT???????GCATATGTTACTAGACGT???????AGCAGTTAACACCGAAAACTCGAGGCTAAACAGCGGACGGGA??????????????TCGCACGATATGAGTATTATGCCGATAAATGTCGGCCGATAACCTGCAATGGCCAGCTGCGTCTATGGGCATACATCCAGTACACGCGATGTCGGAACAGCGCCGATAAGCACGTA???????GAGAATGGCTCTCTCCTACGTGTTGAGGTAGACGTTTCAGCAACACTGA???????AAAACTCGACTATTTCGT???????GAGGCTAAACAGCGCGGAGACCCTGCGAGCGAAGGACACGCGCCTCCAAAGCGAATAGCGAATATCCAGTACACGCG???????GCTCTCTGACGGGACCTGCAATGGCCAGCTGCGTCTATGGGCATACTTTGTGC??????????????GCTCTCTGAGAATGCCTCCAAGCACGTACCGATAAATCCAGTAGACCGTGACTCCATTTGTAGCCTACGT??????????????GAAGCGGAGAC???????AAACATCGATGGTTATTTCGTGCATATGATCATCAATGTCGGTCGCACGAAGTCCTTGGAAGCGACGGGATTTGTGC???????AGAAGATATTTGTCGGATCAGGGTACGTATCTGTATATCTACACTGATGTCGGGCTCTCT???????AGAAGATAAACATCGATGGTTCACAGTT???????GCACGTAGGAGTATGATGGTTGTGCCCTTGGAAGCGCATCACTATTATGTAGACGT??????????AAAACTCCTTAACTGTTTCGAGAGAATGGCCGGTTAAACATCTTGCCGTTGGAAGC???????GCGAACTATGTCGGCCTACGTATTTGTCATCCAGTACACGCGCCGATAAGGATCAGGGTACGTATCTGTATATCTACACTGATCCAGTATTTGTCCCGATAAAACAGCGGAGGCTAGCACGTACCTAAATGCGAACTGATGGTTGGATTGTCCTCCAACAGTATGCCTCCAAATCCAGTCCTAAATGACGATGGGAGTCATCAGTGCCCTCTTATGGCCGATAAAGCGAATCTTAACTGAGAATGGTCATGA???????CACAGTTCTTAACTGTTTCGAACACTGACCTACGTTAGACGTAGAAGATACACGCGCCTGCAATGGCCAGCTGCGTCTATGGGCATACGCTCTCTGACGGGACGGAGACAAACATCGATGGTTTTCAGCAACACTGAGAGGCTA???????CTTATGGTCTTCATCCTAAATGCACGTAGTCATGAGTCATGAATTTCGTGAAGACACTGAGAGGCTACTTATGGCACAGTTGCGAACTAGCAGTT??????????????AACAGCGAGCAGTTAACACCGTGGAAGCGACTCCATTTGTAGTTTGTGCCCTGCAATGGCCAGCTGCGTCTATGGGCATACAGAAGATGCACGTAATTTCGTGAGAATGCCTCCAATCTTCATCCTACGTCCTACGTGAGGCTAAACACCG???????AAGTCCTTCTTCATCACAGTTCTTAACTCGGAGACCCCTTTGCCGTCCTAAATGCGAACTACACGCGTCGCACG???????AGCGAATACACTGAAAACATCCCTAAATCTTATGGAGCGAAT???????GTGCCCTATGTCGGAACAGCGCCTGCAATGGCCAGCTGCGTCTATGGGCATACCCTACGT???????GACGATG???????CCTACGTGTCATGACTTAACTCCTCCAACTTAACTGCACGTATATTATGAAAACTCGCTCTCTGCATCACGCGAACTGGATTGTATCG???????CACAGTTATATGAGATATGAGTAGACGTGACGATGTGGAAGCCCTAAATAGCGAATGTCCCAG???????AAACATCGATGGTTGCACGTA???????GACGGGACCTGCAATGGCCAGCTGCGTCTATGGGCATACTTTGTGCCCTCCAAAGCGAATTGGAAGC??????????????TTTGACTCACAGTTGCGAACTGAGAATGTTTGTAGCGGAGACTATTATGTCGCACGAAGTCCT???????????ATTTGTCTCGCACGAAGTCCTGACTCCACCTCCAAAGCGAATAAGTCCTAACAGGACAATACG???????GAGAATGCCTCCAAGAGAATGAGAAGATATTTGTCCCTGCAATGGCCAGCTGCGTCTATGGGCATACAACAGCGGATGGTTTGGAAGCAGCGAAT??????????????GGTATATGAGGCTATCGCACGGCACGTAGTGCCCTATTTCGTCACAGTTTTTGTGCAGAAGAT???????CGCCCGCTCC???????GTTTCGAGACGGGAGCGAACTATATGAGGACGATG???????GAGAATGACACTGAGACCGTCAACAGCG???????GCACGTA???????AAACATCCCTACGTGGATCAGGGTACGTATCTGTATATCTACACTGAAACATC??????????????AACAGCGAGCGAATGCACGTACTTTCGAGATGGTTTGGAAGC???????GTTTCGAGCATCACCCTAAATAACACCGTTCAGCA???????AAAACGACGT???????AAGTCCTAGCAGTTCTTAACT???????TTCAGCA???????AACAGCGAAACATCTCGGCCGGAGAATGCCTCCAACCTACGTAGCGAATATTTGTCGATGGTTGGATCAGGGTACGTATCTGTATATCTACACTGTGGAAGCGAGAATGCCTCCAAAAACATCGATGGTTTGGAAGCGTCGGCGTGGATTGCTTGTAT?????????????????????ACACTGAGAGGCTATCGCACGTCGCACGAAGTCCTCACAGTTATTTGTCATGTCGGCCGATAA?????????????????????TAGACGTAAAACTCGTCCCAGCCTAAATCTTAACTACACTGACCTGCAATGGCCAGCTGCGTCTATGGGCATACGAGGCTACGCTGTGGCGAACTTTTGACTGTGCCCTCGGAGAC???????GCATATG???????ATCCAGTTTTGACTAGAAGATGCGAACTTATCATGTCGGTTTGTGCAACAGGACAATACG???????ATCATCAGGAGTATTTTGTAGATTTCGTGACTCCACACAGTTCTCCTTACGCTTCGCCTGCAATGGCCAGCTGCGTCTATGGGCATACCAACAAC???????AAGTCCTTTTGTAGCTTAACTGACTCCATTGCCGTGCATATGGGATTGTGGTATAT???????GACGGGACCGATAAGCCTCGCTGTGGCTCTCT??????????????TTGCCGTATCATCAGGAGTATATTTCGTACACTGAGAGGCTATCGCACG??????????????CCTGCAATGGCCAGCTGCGTCTATGGGCATAC???????TAGACGTAAAACTCGCGCTCCGACGATGGTGCCCTTTGCCGTATCATCAGGAGTAT???????ATCCAGTACACGCGCTCCTTA??????????CGCTTCGCAACAACCCGATAA??????????????GCATATGGGATTGTGCGCTCC???????CGCCCCTCGCTGTGCGGAGAC??????????????GGATCAGGGTACGTATCTGTATATCTACACTG???????AATAGGGTTTGTAGCTCCTTATAGACGT???????CGCCCCTGTCCCAGAGACCGT???????CTTTCGAATGTCGGCCGTTTCACACGCCAGTAATAGGG???????GACCGTC???????AGACCGTGGATTGTCGCTGTGCCTAAATCGGAGACCGCTTCG???????CCGTTTC???????CCTGCAATGGCCAGCTGCGTCTATGGGCATACTCGCACGAAGTCCT???????CAACAACCAATACGGCGAACTCTCCTTA???????GCGAAGG???????GCTCTCT???????CGGATGGCTTAATAAATGTGCGCGGTCCCAGACACGCG???????AGACCGT???????CGCTTCGGACGATGAACAGGACCGTTTCCGCCCCTTCGCACGAAGTCCTCCTGCAATGGCCAGCTGCGTCTATGGGCATACCACAGTTGCGAACTGCGCTCCAATAGGGCGGATGGAAAACTCCAACAACCCGTTTCGCGAAGG???????ATGTCGGCTTGTATGACGATGGTGCCCTTTTGTCTCCAATTTCGTGTCGGCGTGGATTGCCGATAAGTTGAGGCCTGCGAAATAGGGCGGAGACTAGACGTGTGCGCGACACTGAGAGGCTACCTAAATGGATCAGGGTACGTATCTGTATATCTACACTGCTTAACTGGATTGTCTTAACT???????AAGTCCTTTTGTAGCGGATGGGTTGAGGGCCGGTTATCCAGTATTTGTCTCGGCCGGACTCCAATATACACTGACTTTCGA???????GACGGGACAGTATGCCTGCGA???????GACTCCACACAGTTGGTATATCCTAAAT???????CACAGTTCCTGCAATGGCCAGCTGCGTCTATGGGCATACGCGAACTATTTCGTGCGAACTGACCGTC???????ATTTCGT???????CCTGCGA???????TTTGTGCAGAAGATGACCGTCGAGGCTA????GCTCTCTGGTATATATTTGTCTCGGCCG???????GCGAAGGTTTGACTGTGCCCT???????AAAACTCCACAGTTGACTCCACGGATGGCCTGCAATGGCCAGCTGCGTCTATGGGCATACGTGCGCGTCGCACGAAGTCCTGTCATGACTTGTATGACGATGAACAGGA??????????????GTCGGCGAACAGGACAATACGGACGGGATTTGTCTCCATTTGTGCAGAAGATTTTGACTTGGATTGCTTGTAT???????CAATACGGGTATATTGGATTGCTTATGGTCTTCATGAGGCTACAGTATGGCCGGTTGGATCAGGGTACGTATCTGTATATCTACACTGGTTGAGGCTTAACTACACTGAAGCAGTTTCGGCCGGTCGGCGGACCGTC??????????????ATGTCGGATTTGTCGTCCCAGATTTGTCGTGCCCGATGCAGTATGTTTGTGCAGAAGATCCGATAAGTTGAGG???????CTTTCGA???????CTTTCGAAACACCGGTGCCCTCCTAAATCCTGCGACCTGCAATGGCCAGCTGCGTCTATGGGCATACGCGAAGGGAGGCTAGACGATGTTCAGCA??????????????TCGGCCGCAGTATGGCCGGTTATCCAGTGCTCTCTGACGGGAGCCGGTTCGGAGTGTAGGTTGAGGAGAAGATACACGCGACACGCGGCCGGTTGTGCGCGGTCGGCGTCGCACG???????GTTTCGATTGCCGTACACTGAAGACCGTCCTGCAATGGCCAGCTGCGTCTATGGGCATACGCATATGATCATCAGGAGTATGCATCACATATGAGTATTATGTGGATTGCTTGTATCAGTATGGCTCTCTGACGGGATTTGTGCCCTGCGAGCGAAGG'
p497
aa((S'GAGTTTTACGTCTAGTCTCCGCTACAAATGGAGTCACGAAATAGGGCACCATCGTC'
p498
S'TAGCCTCTCAGTGTAGTTAAGATTTAGGAGTTCGCAACTGTGAGGACTTCGTGCGA'
p499
tp500
(S'TACGTGCATTCGCTTTGGAGGCATTCTCGCTTCCAAACCATCGATGTTTACGTAGGCGCTGTT'
p501
S'GACAAATATCTTCTGCACAAATCCCGTCAGAGAGCCGCGTGTACTGGATTTATCGGCCGACAT'
p502
tp503
(S'CATAATACTCATATGTGATGCTCGAAACTGCTGAACGGTGTTAACTGCTATGAAGACCATAAGTCATGAC'
p504
S'CGCGCACCCATCCGCCCTATTGAAACGGGTTGTTGCGAAGCGTAAGGAGCACAGCGAGGGGCGGGAGCGC'
p505
tp506
(S'ATACAAGCAATCCACGCCGACCGGCCGATCGAAAGGACGGTCATATACCCGTATTGTCCTGTTAGTCAAACTGGGAC'
p507
S'ACAATCCACGGCAAATACTCCTGATGATCATATGCACGGTCTCCTTCGCTCGCAGGCCTCAACAACCGGCCATACTG'
p508
tp509
tp510
a((S'AGCATACGTACCCTGATCCCAGTGTAGATATACAGAAT'
p511
S'AACAGCTGGCCATTGCAGGGTATGCCCATAGACGCGAA'
p512
tp513
tp514
a.